
_picviewer:     file format elf32-i386


Disassembly of section .text:

00000000 <Initialize>:
void drawPicViewerContent(Context context, char* fileName);
void updateWindowWithoutBlank(Context context);

//Initialize
void Initialize(Context context)
{
       0:	55                   	push   %ebp
       1:	89 e5                	mov    %esp,%ebp
	startXsave = (context.width-pic.width) >> 1;
       3:	8b 55 0c             	mov    0xc(%ebp),%edx
       6:	a1 04 1a 01 00       	mov    0x11a04,%eax
       b:	29 c2                	sub    %eax,%edx
       d:	89 d0                	mov    %edx,%eax
       f:	d1 f8                	sar    %eax
      11:	a3 04 ec 00 00       	mov    %eax,0xec04
	startYsave = TOPBAR_HEIGHT + ((context.height-pic.height) >> 1);
      16:	8b 55 10             	mov    0x10(%ebp),%edx
      19:	a1 08 1a 01 00       	mov    0x11a08,%eax
      1e:	29 c2                	sub    %eax,%edx
      20:	89 d0                	mov    %edx,%eax
      22:	d1 f8                	sar    %eax
      24:	83 c0 14             	add    $0x14,%eax
      27:	a3 08 ec 00 00       	mov    %eax,0xec08
}
      2c:	5d                   	pop    %ebp
      2d:	c3                   	ret    

0000002e <compressPic>:

// 压缩图片
void compressPic(int width, int height) {
      2e:	55                   	push   %ebp
      2f:	89 e5                	mov    %esp,%ebp
      31:	81 ec 98 00 00 00    	sub    $0x98,%esp
    int x0, y0, x1, x2, y1, y2;
    float fx1, fx2, fy1, fy2;
    int x, y, index;
    RGBQUAD* data;

    w0 = pic.width;//图宽
      37:	a1 04 1a 01 00       	mov    0x11a04,%eax
      3c:	89 45 e8             	mov    %eax,-0x18(%ebp)
    h0 = pic.height;//图高
      3f:	a1 08 1a 01 00       	mov    0x11a08,%eax
      44:	89 45 e4             	mov    %eax,-0x1c(%ebp)
    w1 = width;//设定宽
      47:	8b 45 08             	mov    0x8(%ebp),%eax
      4a:	89 45 e0             	mov    %eax,-0x20(%ebp)
    h1 = height;//设定高
      4d:	8b 45 0c             	mov    0xc(%ebp),%eax
      50:	89 45 dc             	mov    %eax,-0x24(%ebp)

    fw = w0 * 1.0 / w1;//宽缩比
      53:	db 45 e8             	fildl  -0x18(%ebp)
      56:	db 45 e0             	fildl  -0x20(%ebp)
      59:	de f9                	fdivrp %st,%st(1)
      5b:	d9 5d d8             	fstps  -0x28(%ebp)
    fh = h0 * 1.0 / h1;//高缩比
      5e:	db 45 e4             	fildl  -0x1c(%ebp)
      61:	db 45 dc             	fildl  -0x24(%ebp)
      64:	de f9                	fdivrp %st,%st(1)
      66:	d9 5d d4             	fstps  -0x2c(%ebp)

    index = 0;
      69:	c7 45 ec 00 00 00 00 	movl   $0x0,-0x14(%ebp)
    data = (RGBQUAD*)malloc(w1*h1*sizeof(RGBQUAD));//新图颜色表
      70:	8b 45 e0             	mov    -0x20(%ebp),%eax
      73:	0f af 45 dc          	imul   -0x24(%ebp),%eax
      77:	c1 e0 02             	shl    $0x2,%eax
      7a:	89 04 24             	mov    %eax,(%esp)
      7d:	e8 ac 45 00 00       	call   462e <malloc>
      82:	89 45 d0             	mov    %eax,-0x30(%ebp)
    memset(data, 0, (uint)w1*h1*sizeof(RGBQUAD));
      85:	8b 55 e0             	mov    -0x20(%ebp),%edx
      88:	8b 45 dc             	mov    -0x24(%ebp),%eax
      8b:	0f af c2             	imul   %edx,%eax
      8e:	c1 e0 02             	shl    $0x2,%eax
      91:	89 44 24 08          	mov    %eax,0x8(%esp)
      95:	c7 44 24 04 00 00 00 	movl   $0x0,0x4(%esp)
      9c:	00 
      9d:	8b 45 d0             	mov    -0x30(%ebp),%eax
      a0:	89 04 24             	mov    %eax,(%esp)
      a3:	e8 05 3f 00 00       	call   3fad <memset>
    
    for (y = 0; y < h1; ++y)//双线性插值法  此算法个人认为需要看一下效果，如果好就用它缩放 h1=10,h0=5,w1=9,w0=3
      a8:	c7 45 f0 00 00 00 00 	movl   $0x0,-0x10(%ebp)
      af:	e9 07 03 00 00       	jmp    3bb <compressPic+0x38d>
    {
        y0 = y*fh;//y=0,y0=0
      b4:	db 45 f0             	fildl  -0x10(%ebp)
      b7:	d8 4d d4             	fmuls  -0x2c(%ebp)
      ba:	d9 bd 7e ff ff ff    	fnstcw -0x82(%ebp)
      c0:	0f b7 85 7e ff ff ff 	movzwl -0x82(%ebp),%eax
      c7:	b4 0c                	mov    $0xc,%ah
      c9:	66 89 85 7c ff ff ff 	mov    %ax,-0x84(%ebp)
      d0:	d9 ad 7c ff ff ff    	fldcw  -0x84(%ebp)
      d6:	db 5d cc             	fistpl -0x34(%ebp)
      d9:	d9 ad 7e ff ff ff    	fldcw  -0x82(%ebp)
        y1 = (int)y0;//y1=0
      df:	8b 45 cc             	mov    -0x34(%ebp),%eax
      e2:	89 45 c8             	mov    %eax,-0x38(%ebp)
        y2 = (y1 == h0-1) ? y1 : y1 + 1;//y2=1
      e5:	8b 45 e4             	mov    -0x1c(%ebp),%eax
      e8:	83 e8 01             	sub    $0x1,%eax
      eb:	3b 45 c8             	cmp    -0x38(%ebp),%eax
      ee:	74 08                	je     f8 <compressPic+0xca>
      f0:	8b 45 c8             	mov    -0x38(%ebp),%eax
      f3:	83 c0 01             	add    $0x1,%eax
      f6:	eb 03                	jmp    fb <compressPic+0xcd>
      f8:	8b 45 c8             	mov    -0x38(%ebp),%eax
      fb:	89 45 c4             	mov    %eax,-0x3c(%ebp)

        fy1 = y1-y0;//fy1=0
      fe:	8b 45 cc             	mov    -0x34(%ebp),%eax
     101:	8b 55 c8             	mov    -0x38(%ebp),%edx
     104:	29 c2                	sub    %eax,%edx
     106:	89 d0                	mov    %edx,%eax
     108:	89 45 80             	mov    %eax,-0x80(%ebp)
     10b:	db 45 80             	fildl  -0x80(%ebp)
     10e:	d9 5d c0             	fstps  -0x40(%ebp)
        fy2 = 1.0f-fy1;//fy2=1
     111:	d9 e8                	fld1   
     113:	d8 65 c0             	fsubs  -0x40(%ebp)
     116:	d9 5d bc             	fstps  -0x44(%ebp)

        for (x = 0; x < w1; ++x) {
     119:	c7 45 f4 00 00 00 00 	movl   $0x0,-0xc(%ebp)
     120:	e9 86 02 00 00       	jmp    3ab <compressPic+0x37d>
            x0 = x*fw;//x=0,x0=0
     125:	db 45 f4             	fildl  -0xc(%ebp)
     128:	d8 4d d8             	fmuls  -0x28(%ebp)
     12b:	d9 ad 7c ff ff ff    	fldcw  -0x84(%ebp)
     131:	db 5d b8             	fistpl -0x48(%ebp)
     134:	d9 ad 7e ff ff ff    	fldcw  -0x82(%ebp)
            x1 = (int)x0;//x1=0
     13a:	8b 45 b8             	mov    -0x48(%ebp),%eax
     13d:	89 45 b4             	mov    %eax,-0x4c(%ebp)
            x2 = (x1 == w0-1) ? x1 : x1 + 1;//x2=1
     140:	8b 45 e8             	mov    -0x18(%ebp),%eax
     143:	83 e8 01             	sub    $0x1,%eax
     146:	3b 45 b4             	cmp    -0x4c(%ebp),%eax
     149:	74 08                	je     153 <compressPic+0x125>
     14b:	8b 45 b4             	mov    -0x4c(%ebp),%eax
     14e:	83 c0 01             	add    $0x1,%eax
     151:	eb 03                	jmp    156 <compressPic+0x128>
     153:	8b 45 b4             	mov    -0x4c(%ebp),%eax
     156:	89 45 b0             	mov    %eax,-0x50(%ebp)

            fx1 = x1-x0;//fx1=0    //y1=y0??????
     159:	8b 45 b8             	mov    -0x48(%ebp),%eax
     15c:	8b 55 b4             	mov    -0x4c(%ebp),%edx
     15f:	29 c2                	sub    %eax,%edx
     161:	89 d0                	mov    %edx,%eax
     163:	89 45 80             	mov    %eax,-0x80(%ebp)
     166:	db 45 80             	fildl  -0x80(%ebp)
     169:	d9 5d ac             	fstps  -0x54(%ebp)
            fx2 = 1.0f-fx1;//fx2=1
     16c:	d9 e8                	fld1   
     16e:	d8 65 ac             	fsubs  -0x54(%ebp)
     171:	d9 5d a8             	fstps  -0x58(%ebp)

            float s1 = fx1*fy1;//s1=0
     174:	d9 45 ac             	flds   -0x54(%ebp)
     177:	d8 4d c0             	fmuls  -0x40(%ebp)
     17a:	d9 5d a4             	fstps  -0x5c(%ebp)
            float s2 = fx2*fy1;//s2=0
     17d:	d9 45 a8             	flds   -0x58(%ebp)
     180:	d8 4d c0             	fmuls  -0x40(%ebp)
     183:	d9 5d a0             	fstps  -0x60(%ebp)
            float s3 = fx2*fy2;//s3=1
     186:	d9 45 a8             	flds   -0x58(%ebp)
     189:	d8 4d bc             	fmuls  -0x44(%ebp)
     18c:	d9 5d 9c             	fstps  -0x64(%ebp)
            float s4 = fx1*fy2;//s4=0
     18f:	d9 45 ac             	flds   -0x54(%ebp)
     192:	d8 4d bc             	fmuls  -0x44(%ebp)
     195:	d9 5d 98             	fstps  -0x68(%ebp)

            RGBQUAD p1, p2, p3, p4;
            p1 = pic.data[x1+y1*w0];//p1=pic.data[0]
     198:	8b 15 00 1a 01 00    	mov    0x11a00,%edx
     19e:	8b 45 c8             	mov    -0x38(%ebp),%eax
     1a1:	0f af 45 e8          	imul   -0x18(%ebp),%eax
     1a5:	89 c1                	mov    %eax,%ecx
     1a7:	8b 45 b4             	mov    -0x4c(%ebp),%eax
     1aa:	01 c8                	add    %ecx,%eax
     1ac:	c1 e0 02             	shl    $0x2,%eax
     1af:	01 d0                	add    %edx,%eax
     1b1:	8b 00                	mov    (%eax),%eax
     1b3:	89 45 94             	mov    %eax,-0x6c(%ebp)
            p2 = pic.data[x2+y1*w0];//p2=pic.data[1]
     1b6:	8b 15 00 1a 01 00    	mov    0x11a00,%edx
     1bc:	8b 45 c8             	mov    -0x38(%ebp),%eax
     1bf:	0f af 45 e8          	imul   -0x18(%ebp),%eax
     1c3:	89 c1                	mov    %eax,%ecx
     1c5:	8b 45 b0             	mov    -0x50(%ebp),%eax
     1c8:	01 c8                	add    %ecx,%eax
     1ca:	c1 e0 02             	shl    $0x2,%eax
     1cd:	01 d0                	add    %edx,%eax
     1cf:	8b 00                	mov    (%eax),%eax
     1d1:	89 45 90             	mov    %eax,-0x70(%ebp)
            p3 = pic.data[x1+y2*w0];//p3=pic.data[3]
     1d4:	8b 15 00 1a 01 00    	mov    0x11a00,%edx
     1da:	8b 45 c4             	mov    -0x3c(%ebp),%eax
     1dd:	0f af 45 e8          	imul   -0x18(%ebp),%eax
     1e1:	89 c1                	mov    %eax,%ecx
     1e3:	8b 45 b4             	mov    -0x4c(%ebp),%eax
     1e6:	01 c8                	add    %ecx,%eax
     1e8:	c1 e0 02             	shl    $0x2,%eax
     1eb:	01 d0                	add    %edx,%eax
     1ed:	8b 00                	mov    (%eax),%eax
     1ef:	89 45 8c             	mov    %eax,-0x74(%ebp)
            p4 = pic.data[x2+y2*w0];//p4=pic.data[4]
     1f2:	8b 15 00 1a 01 00    	mov    0x11a00,%edx
     1f8:	8b 45 c4             	mov    -0x3c(%ebp),%eax
     1fb:	0f af 45 e8          	imul   -0x18(%ebp),%eax
     1ff:	89 c1                	mov    %eax,%ecx
     201:	8b 45 b0             	mov    -0x50(%ebp),%eax
     204:	01 c8                	add    %ecx,%eax
     206:	c1 e0 02             	shl    $0x2,%eax
     209:	01 d0                	add    %edx,%eax
     20b:	8b 00                	mov    (%eax),%eax
     20d:	89 45 88             	mov    %eax,-0x78(%ebp)

            data[index].rgbRed = (BYTE)(p1.rgbRed*s3 + p2.rgbRed*s4 + p3.rgbRed*s2 + p4.rgbRed*s1);
     210:	8b 45 ec             	mov    -0x14(%ebp),%eax
     213:	8d 14 85 00 00 00 00 	lea    0x0(,%eax,4),%edx
     21a:	8b 45 d0             	mov    -0x30(%ebp),%eax
     21d:	01 c2                	add    %eax,%edx
     21f:	0f b6 45 96          	movzbl -0x6a(%ebp),%eax
     223:	0f b6 c0             	movzbl %al,%eax
     226:	89 45 80             	mov    %eax,-0x80(%ebp)
     229:	db 45 80             	fildl  -0x80(%ebp)
     22c:	d8 4d 9c             	fmuls  -0x64(%ebp)
     22f:	0f b6 45 92          	movzbl -0x6e(%ebp),%eax
     233:	0f b6 c0             	movzbl %al,%eax
     236:	89 45 80             	mov    %eax,-0x80(%ebp)
     239:	db 45 80             	fildl  -0x80(%ebp)
     23c:	d8 4d 98             	fmuls  -0x68(%ebp)
     23f:	de c1                	faddp  %st,%st(1)
     241:	0f b6 45 8e          	movzbl -0x72(%ebp),%eax
     245:	0f b6 c0             	movzbl %al,%eax
     248:	89 45 80             	mov    %eax,-0x80(%ebp)
     24b:	db 45 80             	fildl  -0x80(%ebp)
     24e:	d8 4d a0             	fmuls  -0x60(%ebp)
     251:	de c1                	faddp  %st,%st(1)
     253:	0f b6 45 8a          	movzbl -0x76(%ebp),%eax
     257:	0f b6 c0             	movzbl %al,%eax
     25a:	89 45 80             	mov    %eax,-0x80(%ebp)
     25d:	db 45 80             	fildl  -0x80(%ebp)
     260:	d8 4d a4             	fmuls  -0x5c(%ebp)
     263:	de c1                	faddp  %st,%st(1)
     265:	d9 ad 7c ff ff ff    	fldcw  -0x84(%ebp)
     26b:	df 9d 7a ff ff ff    	fistp  -0x86(%ebp)
     271:	d9 ad 7e ff ff ff    	fldcw  -0x82(%ebp)
     277:	0f b7 85 7a ff ff ff 	movzwl -0x86(%ebp),%eax
     27e:	88 42 02             	mov    %al,0x2(%edx)
            data[index].rgbGreen = (BYTE)(p1.rgbGreen*s3 + p2.rgbGreen*s4 + p3.rgbGreen*s2 + p4.rgbGreen*s1);
     281:	8b 45 ec             	mov    -0x14(%ebp),%eax
     284:	8d 14 85 00 00 00 00 	lea    0x0(,%eax,4),%edx
     28b:	8b 45 d0             	mov    -0x30(%ebp),%eax
     28e:	01 c2                	add    %eax,%edx
     290:	0f b6 45 95          	movzbl -0x6b(%ebp),%eax
     294:	0f b6 c0             	movzbl %al,%eax
     297:	89 45 80             	mov    %eax,-0x80(%ebp)
     29a:	db 45 80             	fildl  -0x80(%ebp)
     29d:	d8 4d 9c             	fmuls  -0x64(%ebp)
     2a0:	0f b6 45 91          	movzbl -0x6f(%ebp),%eax
     2a4:	0f b6 c0             	movzbl %al,%eax
     2a7:	89 45 80             	mov    %eax,-0x80(%ebp)
     2aa:	db 45 80             	fildl  -0x80(%ebp)
     2ad:	d8 4d 98             	fmuls  -0x68(%ebp)
     2b0:	de c1                	faddp  %st,%st(1)
     2b2:	0f b6 45 8d          	movzbl -0x73(%ebp),%eax
     2b6:	0f b6 c0             	movzbl %al,%eax
     2b9:	89 45 80             	mov    %eax,-0x80(%ebp)
     2bc:	db 45 80             	fildl  -0x80(%ebp)
     2bf:	d8 4d a0             	fmuls  -0x60(%ebp)
     2c2:	de c1                	faddp  %st,%st(1)
     2c4:	0f b6 45 89          	movzbl -0x77(%ebp),%eax
     2c8:	0f b6 c0             	movzbl %al,%eax
     2cb:	89 45 80             	mov    %eax,-0x80(%ebp)
     2ce:	db 45 80             	fildl  -0x80(%ebp)
     2d1:	d8 4d a4             	fmuls  -0x5c(%ebp)
     2d4:	de c1                	faddp  %st,%st(1)
     2d6:	d9 ad 7c ff ff ff    	fldcw  -0x84(%ebp)
     2dc:	df 9d 7a ff ff ff    	fistp  -0x86(%ebp)
     2e2:	d9 ad 7e ff ff ff    	fldcw  -0x82(%ebp)
     2e8:	0f b7 85 7a ff ff ff 	movzwl -0x86(%ebp),%eax
     2ef:	88 42 01             	mov    %al,0x1(%edx)
            data[index].rgbBlue = (BYTE)(p1.rgbBlue*s3 + p2.rgbBlue*s4 + p3.rgbBlue*s2 + p4.rgbBlue*s1);
     2f2:	8b 45 ec             	mov    -0x14(%ebp),%eax
     2f5:	8d 14 85 00 00 00 00 	lea    0x0(,%eax,4),%edx
     2fc:	8b 45 d0             	mov    -0x30(%ebp),%eax
     2ff:	01 c2                	add    %eax,%edx
     301:	0f b6 45 94          	movzbl -0x6c(%ebp),%eax
     305:	0f b6 c0             	movzbl %al,%eax
     308:	89 45 80             	mov    %eax,-0x80(%ebp)
     30b:	db 45 80             	fildl  -0x80(%ebp)
     30e:	d8 4d 9c             	fmuls  -0x64(%ebp)
     311:	0f b6 45 90          	movzbl -0x70(%ebp),%eax
     315:	0f b6 c0             	movzbl %al,%eax
     318:	89 45 80             	mov    %eax,-0x80(%ebp)
     31b:	db 45 80             	fildl  -0x80(%ebp)
     31e:	d8 4d 98             	fmuls  -0x68(%ebp)
     321:	de c1                	faddp  %st,%st(1)
     323:	0f b6 45 8c          	movzbl -0x74(%ebp),%eax
     327:	0f b6 c0             	movzbl %al,%eax
     32a:	89 45 80             	mov    %eax,-0x80(%ebp)
     32d:	db 45 80             	fildl  -0x80(%ebp)
     330:	d8 4d a0             	fmuls  -0x60(%ebp)
     333:	de c1                	faddp  %st,%st(1)
     335:	0f b6 45 88          	movzbl -0x78(%ebp),%eax
     339:	0f b6 c0             	movzbl %al,%eax
     33c:	89 45 80             	mov    %eax,-0x80(%ebp)
     33f:	db 45 80             	fildl  -0x80(%ebp)
     342:	d8 4d a4             	fmuls  -0x5c(%ebp)
     345:	de c1                	faddp  %st,%st(1)
     347:	d9 ad 7c ff ff ff    	fldcw  -0x84(%ebp)
     34d:	df 9d 7a ff ff ff    	fistp  -0x86(%ebp)
     353:	d9 ad 7e ff ff ff    	fldcw  -0x82(%ebp)
     359:	0f b7 85 7a ff ff ff 	movzwl -0x86(%ebp),%eax
     360:	88 02                	mov    %al,(%edx)

            data[index].rgbRed = p1.rgbRed;
     362:	8b 45 ec             	mov    -0x14(%ebp),%eax
     365:	8d 14 85 00 00 00 00 	lea    0x0(,%eax,4),%edx
     36c:	8b 45 d0             	mov    -0x30(%ebp),%eax
     36f:	01 c2                	add    %eax,%edx
     371:	0f b6 45 96          	movzbl -0x6a(%ebp),%eax
     375:	88 42 02             	mov    %al,0x2(%edx)
            data[index].rgbGreen = p1.rgbGreen;
     378:	8b 45 ec             	mov    -0x14(%ebp),%eax
     37b:	8d 14 85 00 00 00 00 	lea    0x0(,%eax,4),%edx
     382:	8b 45 d0             	mov    -0x30(%ebp),%eax
     385:	01 c2                	add    %eax,%edx
     387:	0f b6 45 95          	movzbl -0x6b(%ebp),%eax
     38b:	88 42 01             	mov    %al,0x1(%edx)
            data[index].rgbBlue = p1.rgbBlue;
     38e:	8b 45 ec             	mov    -0x14(%ebp),%eax
     391:	8d 14 85 00 00 00 00 	lea    0x0(,%eax,4),%edx
     398:	8b 45 d0             	mov    -0x30(%ebp),%eax
     39b:	01 c2                	add    %eax,%edx
     39d:	0f b6 45 94          	movzbl -0x6c(%ebp),%eax
     3a1:	88 02                	mov    %al,(%edx)

            ++index;
     3a3:	83 45 ec 01          	addl   $0x1,-0x14(%ebp)
        y2 = (y1 == h0-1) ? y1 : y1 + 1;//y2=1

        fy1 = y1-y0;//fy1=0
        fy2 = 1.0f-fy1;//fy2=1

        for (x = 0; x < w1; ++x) {
     3a7:	83 45 f4 01          	addl   $0x1,-0xc(%ebp)
     3ab:	8b 45 f4             	mov    -0xc(%ebp),%eax
     3ae:	3b 45 e0             	cmp    -0x20(%ebp),%eax
     3b1:	0f 8c 6e fd ff ff    	jl     125 <compressPic+0xf7>

    index = 0;
    data = (RGBQUAD*)malloc(w1*h1*sizeof(RGBQUAD));//新图颜色表
    memset(data, 0, (uint)w1*h1*sizeof(RGBQUAD));
    
    for (y = 0; y < h1; ++y)//双线性插值法  此算法个人认为需要看一下效果，如果好就用它缩放 h1=10,h0=5,w1=9,w0=3
     3b7:	83 45 f0 01          	addl   $0x1,-0x10(%ebp)
     3bb:	8b 45 f0             	mov    -0x10(%ebp),%eax
     3be:	3b 45 dc             	cmp    -0x24(%ebp),%eax
     3c1:	0f 8c ed fc ff ff    	jl     b4 <compressPic+0x86>

            ++index;
        }
    }

    freepic(&pic);
     3c7:	c7 04 24 00 1a 01 00 	movl   $0x11a00,(%esp)
     3ce:	e8 61 31 00 00       	call   3534 <freepic>
    pic.data = data;
     3d3:	8b 45 d0             	mov    -0x30(%ebp),%eax
     3d6:	a3 00 1a 01 00       	mov    %eax,0x11a00
    pic.width = width;
     3db:	8b 45 08             	mov    0x8(%ebp),%eax
     3de:	a3 04 1a 01 00       	mov    %eax,0x11a04
    pic.height = height;
     3e3:	8b 45 0c             	mov    0xc(%ebp),%eax
     3e6:	a3 08 1a 01 00       	mov    %eax,0x11a08
}
     3eb:	c9                   	leave  
     3ec:	c3                   	ret    

000003ed <compressAnyPic>:

void compressAnyPic(PICNODE* anypic, int width, int height) {
     3ed:	55                   	push   %ebp
     3ee:	89 e5                	mov    %esp,%ebp
     3f0:	81 ec 98 00 00 00    	sub    $0x98,%esp
    int x0, y0, x1, x2, y1, y2;
    float fx1, fx2, fy1, fy2;
    int x, y, index;
    RGBQUAD* data;

    w0 = anypic->width;//图宽
     3f6:	8b 45 08             	mov    0x8(%ebp),%eax
     3f9:	8b 40 04             	mov    0x4(%eax),%eax
     3fc:	89 45 e8             	mov    %eax,-0x18(%ebp)
    h0 = anypic->height;//图高
     3ff:	8b 45 08             	mov    0x8(%ebp),%eax
     402:	8b 40 08             	mov    0x8(%eax),%eax
     405:	89 45 e4             	mov    %eax,-0x1c(%ebp)
    w1 = width;//设定宽
     408:	8b 45 0c             	mov    0xc(%ebp),%eax
     40b:	89 45 e0             	mov    %eax,-0x20(%ebp)
    h1 = height;//设定高
     40e:	8b 45 10             	mov    0x10(%ebp),%eax
     411:	89 45 dc             	mov    %eax,-0x24(%ebp)

    fw = w0 * 1.0 / w1;//宽缩比
     414:	db 45 e8             	fildl  -0x18(%ebp)
     417:	db 45 e0             	fildl  -0x20(%ebp)
     41a:	de f9                	fdivrp %st,%st(1)
     41c:	d9 5d d8             	fstps  -0x28(%ebp)
    fh = h0 * 1.0 / h1;//高缩比
     41f:	db 45 e4             	fildl  -0x1c(%ebp)
     422:	db 45 dc             	fildl  -0x24(%ebp)
     425:	de f9                	fdivrp %st,%st(1)
     427:	d9 5d d4             	fstps  -0x2c(%ebp)

    index = 0;
     42a:	c7 45 ec 00 00 00 00 	movl   $0x0,-0x14(%ebp)
    data = (RGBQUAD*)malloc(w1*h1*sizeof(RGBQUAD));//新图颜色表
     431:	8b 45 e0             	mov    -0x20(%ebp),%eax
     434:	0f af 45 dc          	imul   -0x24(%ebp),%eax
     438:	c1 e0 02             	shl    $0x2,%eax
     43b:	89 04 24             	mov    %eax,(%esp)
     43e:	e8 eb 41 00 00       	call   462e <malloc>
     443:	89 45 d0             	mov    %eax,-0x30(%ebp)
    memset(data, 0, (uint)w1*h1*sizeof(RGBQUAD));
     446:	8b 55 e0             	mov    -0x20(%ebp),%edx
     449:	8b 45 dc             	mov    -0x24(%ebp),%eax
     44c:	0f af c2             	imul   %edx,%eax
     44f:	c1 e0 02             	shl    $0x2,%eax
     452:	89 44 24 08          	mov    %eax,0x8(%esp)
     456:	c7 44 24 04 00 00 00 	movl   $0x0,0x4(%esp)
     45d:	00 
     45e:	8b 45 d0             	mov    -0x30(%ebp),%eax
     461:	89 04 24             	mov    %eax,(%esp)
     464:	e8 44 3b 00 00       	call   3fad <memset>
    
    for (y = 0; y < h1; ++y)//双线性插值法  此算法个人认为需要看一下效果，如果好就用它缩放 h1=10,h0=5,w1=9,w0=3
     469:	c7 45 f0 00 00 00 00 	movl   $0x0,-0x10(%ebp)
     470:	e9 03 03 00 00       	jmp    778 <compressAnyPic+0x38b>
    {
        y0 = y*fh;//y=0,y0=0
     475:	db 45 f0             	fildl  -0x10(%ebp)
     478:	d8 4d d4             	fmuls  -0x2c(%ebp)
     47b:	d9 bd 7e ff ff ff    	fnstcw -0x82(%ebp)
     481:	0f b7 85 7e ff ff ff 	movzwl -0x82(%ebp),%eax
     488:	b4 0c                	mov    $0xc,%ah
     48a:	66 89 85 7c ff ff ff 	mov    %ax,-0x84(%ebp)
     491:	d9 ad 7c ff ff ff    	fldcw  -0x84(%ebp)
     497:	db 5d cc             	fistpl -0x34(%ebp)
     49a:	d9 ad 7e ff ff ff    	fldcw  -0x82(%ebp)
        y1 = (int)y0;//y1=0
     4a0:	8b 45 cc             	mov    -0x34(%ebp),%eax
     4a3:	89 45 c8             	mov    %eax,-0x38(%ebp)
        y2 = (y1 == h0-1) ? y1 : y1 + 1;//y2=1
     4a6:	8b 45 e4             	mov    -0x1c(%ebp),%eax
     4a9:	83 e8 01             	sub    $0x1,%eax
     4ac:	3b 45 c8             	cmp    -0x38(%ebp),%eax
     4af:	74 08                	je     4b9 <compressAnyPic+0xcc>
     4b1:	8b 45 c8             	mov    -0x38(%ebp),%eax
     4b4:	83 c0 01             	add    $0x1,%eax
     4b7:	eb 03                	jmp    4bc <compressAnyPic+0xcf>
     4b9:	8b 45 c8             	mov    -0x38(%ebp),%eax
     4bc:	89 45 c4             	mov    %eax,-0x3c(%ebp)

        fy1 = y1-y0;//fy1=0
     4bf:	8b 45 cc             	mov    -0x34(%ebp),%eax
     4c2:	8b 55 c8             	mov    -0x38(%ebp),%edx
     4c5:	29 c2                	sub    %eax,%edx
     4c7:	89 d0                	mov    %edx,%eax
     4c9:	89 45 80             	mov    %eax,-0x80(%ebp)
     4cc:	db 45 80             	fildl  -0x80(%ebp)
     4cf:	d9 5d c0             	fstps  -0x40(%ebp)
        fy2 = 1.0f-fy1;//fy2=1
     4d2:	d9 e8                	fld1   
     4d4:	d8 65 c0             	fsubs  -0x40(%ebp)
     4d7:	d9 5d bc             	fstps  -0x44(%ebp)

        for (x = 0; x < w1; ++x) {
     4da:	c7 45 f4 00 00 00 00 	movl   $0x0,-0xc(%ebp)
     4e1:	e9 82 02 00 00       	jmp    768 <compressAnyPic+0x37b>
            x0 = x*fw;//x=0,x0=0
     4e6:	db 45 f4             	fildl  -0xc(%ebp)
     4e9:	d8 4d d8             	fmuls  -0x28(%ebp)
     4ec:	d9 ad 7c ff ff ff    	fldcw  -0x84(%ebp)
     4f2:	db 5d b8             	fistpl -0x48(%ebp)
     4f5:	d9 ad 7e ff ff ff    	fldcw  -0x82(%ebp)
            x1 = (int)x0;//x1=0
     4fb:	8b 45 b8             	mov    -0x48(%ebp),%eax
     4fe:	89 45 b4             	mov    %eax,-0x4c(%ebp)
            x2 = (x1 == w0-1) ? x1 : x1 + 1;//x2=1
     501:	8b 45 e8             	mov    -0x18(%ebp),%eax
     504:	83 e8 01             	sub    $0x1,%eax
     507:	3b 45 b4             	cmp    -0x4c(%ebp),%eax
     50a:	74 08                	je     514 <compressAnyPic+0x127>
     50c:	8b 45 b4             	mov    -0x4c(%ebp),%eax
     50f:	83 c0 01             	add    $0x1,%eax
     512:	eb 03                	jmp    517 <compressAnyPic+0x12a>
     514:	8b 45 b4             	mov    -0x4c(%ebp),%eax
     517:	89 45 b0             	mov    %eax,-0x50(%ebp)

            fx1 = x1-x0;//fx1=0    //y1=y0??????
     51a:	8b 45 b8             	mov    -0x48(%ebp),%eax
     51d:	8b 55 b4             	mov    -0x4c(%ebp),%edx
     520:	29 c2                	sub    %eax,%edx
     522:	89 d0                	mov    %edx,%eax
     524:	89 45 80             	mov    %eax,-0x80(%ebp)
     527:	db 45 80             	fildl  -0x80(%ebp)
     52a:	d9 5d ac             	fstps  -0x54(%ebp)
            fx2 = 1.0f-fx1;//fx2=1
     52d:	d9 e8                	fld1   
     52f:	d8 65 ac             	fsubs  -0x54(%ebp)
     532:	d9 5d a8             	fstps  -0x58(%ebp)

            float s1 = fx1*fy1;//s1=0
     535:	d9 45 ac             	flds   -0x54(%ebp)
     538:	d8 4d c0             	fmuls  -0x40(%ebp)
     53b:	d9 5d a4             	fstps  -0x5c(%ebp)
            float s2 = fx2*fy1;//s2=0
     53e:	d9 45 a8             	flds   -0x58(%ebp)
     541:	d8 4d c0             	fmuls  -0x40(%ebp)
     544:	d9 5d a0             	fstps  -0x60(%ebp)
            float s3 = fx2*fy2;//s3=1
     547:	d9 45 a8             	flds   -0x58(%ebp)
     54a:	d8 4d bc             	fmuls  -0x44(%ebp)
     54d:	d9 5d 9c             	fstps  -0x64(%ebp)
            float s4 = fx1*fy2;//s4=0
     550:	d9 45 ac             	flds   -0x54(%ebp)
     553:	d8 4d bc             	fmuls  -0x44(%ebp)
     556:	d9 5d 98             	fstps  -0x68(%ebp)

            RGBQUAD p1, p2, p3, p4;
            p1 = anypic->data[x1+y1*w0];//p1=pic.data[0]
     559:	8b 45 08             	mov    0x8(%ebp),%eax
     55c:	8b 10                	mov    (%eax),%edx
     55e:	8b 45 c8             	mov    -0x38(%ebp),%eax
     561:	0f af 45 e8          	imul   -0x18(%ebp),%eax
     565:	89 c1                	mov    %eax,%ecx
     567:	8b 45 b4             	mov    -0x4c(%ebp),%eax
     56a:	01 c8                	add    %ecx,%eax
     56c:	c1 e0 02             	shl    $0x2,%eax
     56f:	01 d0                	add    %edx,%eax
     571:	8b 00                	mov    (%eax),%eax
     573:	89 45 94             	mov    %eax,-0x6c(%ebp)
            p2 = anypic->data[x2+y1*w0];//p2=pic.data[1]
     576:	8b 45 08             	mov    0x8(%ebp),%eax
     579:	8b 10                	mov    (%eax),%edx
     57b:	8b 45 c8             	mov    -0x38(%ebp),%eax
     57e:	0f af 45 e8          	imul   -0x18(%ebp),%eax
     582:	89 c1                	mov    %eax,%ecx
     584:	8b 45 b0             	mov    -0x50(%ebp),%eax
     587:	01 c8                	add    %ecx,%eax
     589:	c1 e0 02             	shl    $0x2,%eax
     58c:	01 d0                	add    %edx,%eax
     58e:	8b 00                	mov    (%eax),%eax
     590:	89 45 90             	mov    %eax,-0x70(%ebp)
            p3 = anypic->data[x1+y2*w0];//p3=pic.data[3]
     593:	8b 45 08             	mov    0x8(%ebp),%eax
     596:	8b 10                	mov    (%eax),%edx
     598:	8b 45 c4             	mov    -0x3c(%ebp),%eax
     59b:	0f af 45 e8          	imul   -0x18(%ebp),%eax
     59f:	89 c1                	mov    %eax,%ecx
     5a1:	8b 45 b4             	mov    -0x4c(%ebp),%eax
     5a4:	01 c8                	add    %ecx,%eax
     5a6:	c1 e0 02             	shl    $0x2,%eax
     5a9:	01 d0                	add    %edx,%eax
     5ab:	8b 00                	mov    (%eax),%eax
     5ad:	89 45 8c             	mov    %eax,-0x74(%ebp)
            p4 = anypic->data[x2+y2*w0];//p4=pic.data[4]
     5b0:	8b 45 08             	mov    0x8(%ebp),%eax
     5b3:	8b 10                	mov    (%eax),%edx
     5b5:	8b 45 c4             	mov    -0x3c(%ebp),%eax
     5b8:	0f af 45 e8          	imul   -0x18(%ebp),%eax
     5bc:	89 c1                	mov    %eax,%ecx
     5be:	8b 45 b0             	mov    -0x50(%ebp),%eax
     5c1:	01 c8                	add    %ecx,%eax
     5c3:	c1 e0 02             	shl    $0x2,%eax
     5c6:	01 d0                	add    %edx,%eax
     5c8:	8b 00                	mov    (%eax),%eax
     5ca:	89 45 88             	mov    %eax,-0x78(%ebp)

            data[index].rgbRed = (BYTE)(p1.rgbRed*s3 + p2.rgbRed*s4 + p3.rgbRed*s2 + p4.rgbRed*s1);
     5cd:	8b 45 ec             	mov    -0x14(%ebp),%eax
     5d0:	8d 14 85 00 00 00 00 	lea    0x0(,%eax,4),%edx
     5d7:	8b 45 d0             	mov    -0x30(%ebp),%eax
     5da:	01 c2                	add    %eax,%edx
     5dc:	0f b6 45 96          	movzbl -0x6a(%ebp),%eax
     5e0:	0f b6 c0             	movzbl %al,%eax
     5e3:	89 45 80             	mov    %eax,-0x80(%ebp)
     5e6:	db 45 80             	fildl  -0x80(%ebp)
     5e9:	d8 4d 9c             	fmuls  -0x64(%ebp)
     5ec:	0f b6 45 92          	movzbl -0x6e(%ebp),%eax
     5f0:	0f b6 c0             	movzbl %al,%eax
     5f3:	89 45 80             	mov    %eax,-0x80(%ebp)
     5f6:	db 45 80             	fildl  -0x80(%ebp)
     5f9:	d8 4d 98             	fmuls  -0x68(%ebp)
     5fc:	de c1                	faddp  %st,%st(1)
     5fe:	0f b6 45 8e          	movzbl -0x72(%ebp),%eax
     602:	0f b6 c0             	movzbl %al,%eax
     605:	89 45 80             	mov    %eax,-0x80(%ebp)
     608:	db 45 80             	fildl  -0x80(%ebp)
     60b:	d8 4d a0             	fmuls  -0x60(%ebp)
     60e:	de c1                	faddp  %st,%st(1)
     610:	0f b6 45 8a          	movzbl -0x76(%ebp),%eax
     614:	0f b6 c0             	movzbl %al,%eax
     617:	89 45 80             	mov    %eax,-0x80(%ebp)
     61a:	db 45 80             	fildl  -0x80(%ebp)
     61d:	d8 4d a4             	fmuls  -0x5c(%ebp)
     620:	de c1                	faddp  %st,%st(1)
     622:	d9 ad 7c ff ff ff    	fldcw  -0x84(%ebp)
     628:	df 9d 7a ff ff ff    	fistp  -0x86(%ebp)
     62e:	d9 ad 7e ff ff ff    	fldcw  -0x82(%ebp)
     634:	0f b7 85 7a ff ff ff 	movzwl -0x86(%ebp),%eax
     63b:	88 42 02             	mov    %al,0x2(%edx)
            data[index].rgbGreen = (BYTE)(p1.rgbGreen*s3 + p2.rgbGreen*s4 + p3.rgbGreen*s2 + p4.rgbGreen*s1);
     63e:	8b 45 ec             	mov    -0x14(%ebp),%eax
     641:	8d 14 85 00 00 00 00 	lea    0x0(,%eax,4),%edx
     648:	8b 45 d0             	mov    -0x30(%ebp),%eax
     64b:	01 c2                	add    %eax,%edx
     64d:	0f b6 45 95          	movzbl -0x6b(%ebp),%eax
     651:	0f b6 c0             	movzbl %al,%eax
     654:	89 45 80             	mov    %eax,-0x80(%ebp)
     657:	db 45 80             	fildl  -0x80(%ebp)
     65a:	d8 4d 9c             	fmuls  -0x64(%ebp)
     65d:	0f b6 45 91          	movzbl -0x6f(%ebp),%eax
     661:	0f b6 c0             	movzbl %al,%eax
     664:	89 45 80             	mov    %eax,-0x80(%ebp)
     667:	db 45 80             	fildl  -0x80(%ebp)
     66a:	d8 4d 98             	fmuls  -0x68(%ebp)
     66d:	de c1                	faddp  %st,%st(1)
     66f:	0f b6 45 8d          	movzbl -0x73(%ebp),%eax
     673:	0f b6 c0             	movzbl %al,%eax
     676:	89 45 80             	mov    %eax,-0x80(%ebp)
     679:	db 45 80             	fildl  -0x80(%ebp)
     67c:	d8 4d a0             	fmuls  -0x60(%ebp)
     67f:	de c1                	faddp  %st,%st(1)
     681:	0f b6 45 89          	movzbl -0x77(%ebp),%eax
     685:	0f b6 c0             	movzbl %al,%eax
     688:	89 45 80             	mov    %eax,-0x80(%ebp)
     68b:	db 45 80             	fildl  -0x80(%ebp)
     68e:	d8 4d a4             	fmuls  -0x5c(%ebp)
     691:	de c1                	faddp  %st,%st(1)
     693:	d9 ad 7c ff ff ff    	fldcw  -0x84(%ebp)
     699:	df 9d 7a ff ff ff    	fistp  -0x86(%ebp)
     69f:	d9 ad 7e ff ff ff    	fldcw  -0x82(%ebp)
     6a5:	0f b7 85 7a ff ff ff 	movzwl -0x86(%ebp),%eax
     6ac:	88 42 01             	mov    %al,0x1(%edx)
            data[index].rgbBlue = (BYTE)(p1.rgbBlue*s3 + p2.rgbBlue*s4 + p3.rgbBlue*s2 + p4.rgbBlue*s1);
     6af:	8b 45 ec             	mov    -0x14(%ebp),%eax
     6b2:	8d 14 85 00 00 00 00 	lea    0x0(,%eax,4),%edx
     6b9:	8b 45 d0             	mov    -0x30(%ebp),%eax
     6bc:	01 c2                	add    %eax,%edx
     6be:	0f b6 45 94          	movzbl -0x6c(%ebp),%eax
     6c2:	0f b6 c0             	movzbl %al,%eax
     6c5:	89 45 80             	mov    %eax,-0x80(%ebp)
     6c8:	db 45 80             	fildl  -0x80(%ebp)
     6cb:	d8 4d 9c             	fmuls  -0x64(%ebp)
     6ce:	0f b6 45 90          	movzbl -0x70(%ebp),%eax
     6d2:	0f b6 c0             	movzbl %al,%eax
     6d5:	89 45 80             	mov    %eax,-0x80(%ebp)
     6d8:	db 45 80             	fildl  -0x80(%ebp)
     6db:	d8 4d 98             	fmuls  -0x68(%ebp)
     6de:	de c1                	faddp  %st,%st(1)
     6e0:	0f b6 45 8c          	movzbl -0x74(%ebp),%eax
     6e4:	0f b6 c0             	movzbl %al,%eax
     6e7:	89 45 80             	mov    %eax,-0x80(%ebp)
     6ea:	db 45 80             	fildl  -0x80(%ebp)
     6ed:	d8 4d a0             	fmuls  -0x60(%ebp)
     6f0:	de c1                	faddp  %st,%st(1)
     6f2:	0f b6 45 88          	movzbl -0x78(%ebp),%eax
     6f6:	0f b6 c0             	movzbl %al,%eax
     6f9:	89 45 80             	mov    %eax,-0x80(%ebp)
     6fc:	db 45 80             	fildl  -0x80(%ebp)
     6ff:	d8 4d a4             	fmuls  -0x5c(%ebp)
     702:	de c1                	faddp  %st,%st(1)
     704:	d9 ad 7c ff ff ff    	fldcw  -0x84(%ebp)
     70a:	df 9d 7a ff ff ff    	fistp  -0x86(%ebp)
     710:	d9 ad 7e ff ff ff    	fldcw  -0x82(%ebp)
     716:	0f b7 85 7a ff ff ff 	movzwl -0x86(%ebp),%eax
     71d:	88 02                	mov    %al,(%edx)

            data[index].rgbRed = p1.rgbRed;
     71f:	8b 45 ec             	mov    -0x14(%ebp),%eax
     722:	8d 14 85 00 00 00 00 	lea    0x0(,%eax,4),%edx
     729:	8b 45 d0             	mov    -0x30(%ebp),%eax
     72c:	01 c2                	add    %eax,%edx
     72e:	0f b6 45 96          	movzbl -0x6a(%ebp),%eax
     732:	88 42 02             	mov    %al,0x2(%edx)
            data[index].rgbGreen = p1.rgbGreen;
     735:	8b 45 ec             	mov    -0x14(%ebp),%eax
     738:	8d 14 85 00 00 00 00 	lea    0x0(,%eax,4),%edx
     73f:	8b 45 d0             	mov    -0x30(%ebp),%eax
     742:	01 c2                	add    %eax,%edx
     744:	0f b6 45 95          	movzbl -0x6b(%ebp),%eax
     748:	88 42 01             	mov    %al,0x1(%edx)
            data[index].rgbBlue = p1.rgbBlue;
     74b:	8b 45 ec             	mov    -0x14(%ebp),%eax
     74e:	8d 14 85 00 00 00 00 	lea    0x0(,%eax,4),%edx
     755:	8b 45 d0             	mov    -0x30(%ebp),%eax
     758:	01 c2                	add    %eax,%edx
     75a:	0f b6 45 94          	movzbl -0x6c(%ebp),%eax
     75e:	88 02                	mov    %al,(%edx)

            ++index;
     760:	83 45 ec 01          	addl   $0x1,-0x14(%ebp)
        y2 = (y1 == h0-1) ? y1 : y1 + 1;//y2=1

        fy1 = y1-y0;//fy1=0
        fy2 = 1.0f-fy1;//fy2=1

        for (x = 0; x < w1; ++x) {
     764:	83 45 f4 01          	addl   $0x1,-0xc(%ebp)
     768:	8b 45 f4             	mov    -0xc(%ebp),%eax
     76b:	3b 45 e0             	cmp    -0x20(%ebp),%eax
     76e:	0f 8c 72 fd ff ff    	jl     4e6 <compressAnyPic+0xf9>

    index = 0;
    data = (RGBQUAD*)malloc(w1*h1*sizeof(RGBQUAD));//新图颜色表
    memset(data, 0, (uint)w1*h1*sizeof(RGBQUAD));
    
    for (y = 0; y < h1; ++y)//双线性插值法  此算法个人认为需要看一下效果，如果好就用它缩放 h1=10,h0=5,w1=9,w0=3
     774:	83 45 f0 01          	addl   $0x1,-0x10(%ebp)
     778:	8b 45 f0             	mov    -0x10(%ebp),%eax
     77b:	3b 45 dc             	cmp    -0x24(%ebp),%eax
     77e:	0f 8c f1 fc ff ff    	jl     475 <compressAnyPic+0x88>

            ++index;
        }
    }

    freepic(anypic);
     784:	8b 45 08             	mov    0x8(%ebp),%eax
     787:	89 04 24             	mov    %eax,(%esp)
     78a:	e8 a5 2d 00 00       	call   3534 <freepic>
    anypic->data = data;
     78f:	8b 45 08             	mov    0x8(%ebp),%eax
     792:	8b 55 d0             	mov    -0x30(%ebp),%edx
     795:	89 10                	mov    %edx,(%eax)
    anypic->width = width;
     797:	8b 45 08             	mov    0x8(%ebp),%eax
     79a:	8b 55 0c             	mov    0xc(%ebp),%edx
     79d:	89 50 04             	mov    %edx,0x4(%eax)
    anypic->height = height;
     7a0:	8b 45 08             	mov    0x8(%ebp),%eax
     7a3:	8b 55 10             	mov    0x10(%ebp),%edx
     7a6:	89 50 08             	mov    %edx,0x8(%eax)
}
     7a9:	c9                   	leave  
     7aa:	c3                   	ret    

000007ab <modifyPic>:

void modifyPic(Context context)//调整大小来适应背景
{
     7ab:	55                   	push   %ebp
     7ac:	89 e5                	mov    %esp,%ebp
     7ae:	83 ec 48             	sub    $0x48,%esp
    int c_width, c_height;
    int pic_width, pic_height;

    c_width = context.width;
     7b1:	8b 45 0c             	mov    0xc(%ebp),%eax
     7b4:	89 45 ec             	mov    %eax,-0x14(%ebp)
    c_height = context.height;
     7b7:	8b 45 10             	mov    0x10(%ebp),%eax
     7ba:	89 45 e8             	mov    %eax,-0x18(%ebp)
    pic_width = pic.width;
     7bd:	a1 04 1a 01 00       	mov    0x11a04,%eax
     7c2:	89 45 f4             	mov    %eax,-0xc(%ebp)
    pic_height = pic.height;
     7c5:	a1 08 1a 01 00       	mov    0x11a08,%eax
     7ca:	89 45 f0             	mov    %eax,-0x10(%ebp)

    if (pic_width < c_width && pic_height < c_height) {//比背景小，不动
     7cd:	8b 45 f4             	mov    -0xc(%ebp),%eax
     7d0:	3b 45 ec             	cmp    -0x14(%ebp),%eax
     7d3:	7d 0d                	jge    7e2 <modifyPic+0x37>
     7d5:	8b 45 f0             	mov    -0x10(%ebp),%eax
     7d8:	3b 45 e8             	cmp    -0x18(%ebp),%eax
     7db:	7d 05                	jge    7e2 <modifyPic+0x37>
        return;
     7dd:	e9 b6 00 00 00       	jmp    898 <modifyPic+0xed>
    }

    float scale_p, scale_c;//宽高比
    scale_p = pic_width * 1.0 / pic_height;
     7e2:	db 45 f4             	fildl  -0xc(%ebp)
     7e5:	db 45 f0             	fildl  -0x10(%ebp)
     7e8:	de f9                	fdivrp %st,%st(1)
     7ea:	d9 5d e4             	fstps  -0x1c(%ebp)
    scale_c = c_width * 1.0 / c_height;
     7ed:	db 45 ec             	fildl  -0x14(%ebp)
     7f0:	db 45 e8             	fildl  -0x18(%ebp)
     7f3:	de f9                	fdivrp %st,%st(1)
     7f5:	d9 5d e0             	fstps  -0x20(%ebp)

    if (scale_p <= scale_c) {
     7f8:	d9 45 e0             	flds   -0x20(%ebp)
     7fb:	d9 45 e4             	flds   -0x1c(%ebp)
     7fe:	d9 c9                	fxch   %st(1)
     800:	df e9                	fucomip %st(1),%st
     802:	dd d8                	fstp   %st(0)
     804:	72 30                	jb     836 <modifyPic+0x8b>
        pic_width = scale_p * (c_height-10);
     806:	8b 45 e8             	mov    -0x18(%ebp),%eax
     809:	83 e8 0a             	sub    $0xa,%eax
     80c:	89 45 d0             	mov    %eax,-0x30(%ebp)
     80f:	db 45 d0             	fildl  -0x30(%ebp)
     812:	d8 4d e4             	fmuls  -0x1c(%ebp)
     815:	d9 7d ce             	fnstcw -0x32(%ebp)
     818:	0f b7 45 ce          	movzwl -0x32(%ebp),%eax
     81c:	b4 0c                	mov    $0xc,%ah
     81e:	66 89 45 cc          	mov    %ax,-0x34(%ebp)
     822:	d9 6d cc             	fldcw  -0x34(%ebp)
     825:	db 5d f4             	fistpl -0xc(%ebp)
     828:	d9 6d ce             	fldcw  -0x32(%ebp)
        pic_height = c_height-10;
     82b:	8b 45 e8             	mov    -0x18(%ebp),%eax
     82e:	83 e8 0a             	sub    $0xa,%eax
     831:	89 45 f0             	mov    %eax,-0x10(%ebp)
     834:	eb 2e                	jmp    864 <modifyPic+0xb9>
    } else {
        pic_height = (c_width-5) / scale_p;
     836:	8b 45 ec             	mov    -0x14(%ebp),%eax
     839:	83 e8 05             	sub    $0x5,%eax
     83c:	89 45 d0             	mov    %eax,-0x30(%ebp)
     83f:	db 45 d0             	fildl  -0x30(%ebp)
     842:	d8 75 e4             	fdivs  -0x1c(%ebp)
     845:	d9 7d ce             	fnstcw -0x32(%ebp)
     848:	0f b7 45 ce          	movzwl -0x32(%ebp),%eax
     84c:	b4 0c                	mov    $0xc,%ah
     84e:	66 89 45 cc          	mov    %ax,-0x34(%ebp)
     852:	d9 6d cc             	fldcw  -0x34(%ebp)
     855:	db 5d f0             	fistpl -0x10(%ebp)
     858:	d9 6d ce             	fldcw  -0x32(%ebp)
        pic_width = c_width-5;
     85b:	8b 45 ec             	mov    -0x14(%ebp),%eax
     85e:	83 e8 05             	sub    $0x5,%eax
     861:	89 45 f4             	mov    %eax,-0xc(%ebp)
    }
    printf(0, "modifyPic: pic_width: %d, pic_height: %d\n", pic_width, pic_height);
     864:	8b 45 f0             	mov    -0x10(%ebp),%eax
     867:	89 44 24 0c          	mov    %eax,0xc(%esp)
     86b:	8b 45 f4             	mov    -0xc(%ebp),%eax
     86e:	89 44 24 08          	mov    %eax,0x8(%esp)
     872:	c7 44 24 04 c0 a9 00 	movl   $0xa9c0,0x4(%esp)
     879:	00 
     87a:	c7 04 24 00 00 00 00 	movl   $0x0,(%esp)
     881:	e8 bc 3a 00 00       	call   4342 <printf>

    compressPic(pic_width, pic_height);
     886:	8b 45 f0             	mov    -0x10(%ebp),%eax
     889:	89 44 24 04          	mov    %eax,0x4(%esp)
     88d:	8b 45 f4             	mov    -0xc(%ebp),%eax
     890:	89 04 24             	mov    %eax,(%esp)
     893:	e8 96 f7 ff ff       	call   2e <compressPic>
}
     898:	c9                   	leave  
     899:	c3                   	ret    

0000089a <enlargePic>:

//放大图片
void enlargePic(Context context,int enlargeRate,int centerX, int centerY)
{
     89a:	55                   	push   %ebp
     89b:	89 e5                	mov    %esp,%ebp
     89d:	56                   	push   %esi
     89e:	53                   	push   %ebx
     89f:	83 ec 30             	sub    $0x30,%esp
    if(centerX<0 || centerY<0 || centerX>context.width || centerY>context.height)return;
     8a2:	83 7d 18 00          	cmpl   $0x0,0x18(%ebp)
     8a6:	78 16                	js     8be <enlargePic+0x24>
     8a8:	83 7d 1c 00          	cmpl   $0x0,0x1c(%ebp)
     8ac:	78 10                	js     8be <enlargePic+0x24>
     8ae:	8b 45 0c             	mov    0xc(%ebp),%eax
     8b1:	3b 45 18             	cmp    0x18(%ebp),%eax
     8b4:	7c 08                	jl     8be <enlargePic+0x24>
     8b6:	8b 45 10             	mov    0x10(%ebp),%eax
     8b9:	3b 45 1c             	cmp    0x1c(%ebp),%eax
     8bc:	7d 05                	jge    8c3 <enlargePic+0x29>
     8be:	e9 30 02 00 00       	jmp    af3 <enlargePic+0x259>
    int width = pic.width*enlargeRate;
     8c3:	a1 04 1a 01 00       	mov    0x11a04,%eax
     8c8:	0f af 45 14          	imul   0x14(%ebp),%eax
     8cc:	89 45 f4             	mov    %eax,-0xc(%ebp)
    int height = pic.height*enlargeRate;
     8cf:	a1 08 1a 01 00       	mov    0x11a08,%eax
     8d4:	0f af 45 14          	imul   0x14(%ebp),%eax
     8d8:	89 45 f0             	mov    %eax,-0x10(%ebp)
    compressPic(width,height);
     8db:	8b 45 f0             	mov    -0x10(%ebp),%eax
     8de:	89 44 24 04          	mov    %eax,0x4(%esp)
     8e2:	8b 45 f4             	mov    -0xc(%ebp),%eax
     8e5:	89 04 24             	mov    %eax,(%esp)
     8e8:	e8 41 f7 ff ff       	call   2e <compressPic>
    /*int centerConX = context.width/2.0;
    int centerConY = context.height/2.0;
    int moveX = centerConX - centerX;
    int moveY = centerConY - centerY;*/
    drawPicViewerWnd(context);
     8ed:	8b 45 08             	mov    0x8(%ebp),%eax
     8f0:	89 04 24             	mov    %eax,(%esp)
     8f3:	8b 45 0c             	mov    0xc(%ebp),%eax
     8f6:	89 44 24 04          	mov    %eax,0x4(%esp)
     8fa:	8b 45 10             	mov    0x10(%ebp),%eax
     8fd:	89 44 24 08          	mov    %eax,0x8(%esp)
     901:	e8 17 06 00 00       	call   f1d <drawPicViewerWnd>
    draw_picture(context, pic, ((context.width >> 1) - centerX)*enlargeRate + ((context.width-width/enlargeRate) >> 1)+X_shift*enlargeRate, 
TOPBAR_HEIGHT + (((context.height-TOPBAR_HEIGHT) >> 1) - (centerY-TOPBAR_HEIGHT))*enlargeRate + ((context.height-TOPBAR_HEIGHT-height/enlargeRate) >> 1)+Y_shift*enlargeRate);
     906:	8b 45 10             	mov    0x10(%ebp),%eax
     909:	83 e8 14             	sub    $0x14,%eax
     90c:	d1 f8                	sar    %eax
     90e:	89 c2                	mov    %eax,%edx
     910:	b8 14 00 00 00       	mov    $0x14,%eax
     915:	2b 45 1c             	sub    0x1c(%ebp),%eax
     918:	01 d0                	add    %edx,%eax
     91a:	0f af 45 14          	imul   0x14(%ebp),%eax
     91e:	8d 48 14             	lea    0x14(%eax),%ecx
     921:	8b 45 10             	mov    0x10(%ebp),%eax
     924:	8d 58 ec             	lea    -0x14(%eax),%ebx
     927:	8b 45 f0             	mov    -0x10(%ebp),%eax
     92a:	99                   	cltd   
     92b:	f7 7d 14             	idivl  0x14(%ebp)
     92e:	29 c3                	sub    %eax,%ebx
     930:	89 d8                	mov    %ebx,%eax
     932:	d1 f8                	sar    %eax
     934:	8d 14 01             	lea    (%ecx,%eax,1),%edx
     937:	a1 10 ec 00 00       	mov    0xec10,%eax
     93c:	0f af 45 14          	imul   0x14(%ebp),%eax
    /*int centerConX = context.width/2.0;
    int centerConY = context.height/2.0;
    int moveX = centerConX - centerX;
    int moveY = centerConY - centerY;*/
    drawPicViewerWnd(context);
    draw_picture(context, pic, ((context.width >> 1) - centerX)*enlargeRate + ((context.width-width/enlargeRate) >> 1)+X_shift*enlargeRate, 
     940:	8d 0c 02             	lea    (%edx,%eax,1),%ecx
     943:	8b 45 0c             	mov    0xc(%ebp),%eax
     946:	d1 f8                	sar    %eax
     948:	2b 45 18             	sub    0x18(%ebp),%eax
     94b:	0f af 45 14          	imul   0x14(%ebp),%eax
     94f:	89 c3                	mov    %eax,%ebx
     951:	8b 75 0c             	mov    0xc(%ebp),%esi
     954:	8b 45 f4             	mov    -0xc(%ebp),%eax
     957:	99                   	cltd   
     958:	f7 7d 14             	idivl  0x14(%ebp)
     95b:	29 c6                	sub    %eax,%esi
     95d:	89 f0                	mov    %esi,%eax
     95f:	d1 f8                	sar    %eax
     961:	8d 14 03             	lea    (%ebx,%eax,1),%edx
     964:	a1 0c ec 00 00       	mov    0xec0c,%eax
     969:	0f af 45 14          	imul   0x14(%ebp),%eax
     96d:	01 d0                	add    %edx,%eax
     96f:	89 4c 24 1c          	mov    %ecx,0x1c(%esp)
     973:	89 44 24 18          	mov    %eax,0x18(%esp)
     977:	a1 00 1a 01 00       	mov    0x11a00,%eax
     97c:	89 44 24 0c          	mov    %eax,0xc(%esp)
     980:	a1 04 1a 01 00       	mov    0x11a04,%eax
     985:	89 44 24 10          	mov    %eax,0x10(%esp)
     989:	a1 08 1a 01 00       	mov    0x11a08,%eax
     98e:	89 44 24 14          	mov    %eax,0x14(%esp)
     992:	8b 45 08             	mov    0x8(%ebp),%eax
     995:	89 04 24             	mov    %eax,(%esp)
     998:	8b 45 0c             	mov    0xc(%ebp),%eax
     99b:	89 44 24 04          	mov    %eax,0x4(%esp)
     99f:	8b 45 10             	mov    0x10(%ebp),%eax
     9a2:	89 44 24 08          	mov    %eax,0x8(%esp)
     9a6:	e8 ad 20 00 00       	call   2a58 <draw_picture>
TOPBAR_HEIGHT + (((context.height-TOPBAR_HEIGHT) >> 1) - (centerY-TOPBAR_HEIGHT))*enlargeRate + ((context.height-TOPBAR_HEIGHT-height/enlargeRate) >> 1)+Y_shift*enlargeRate);
	startXsave = ((context.width >> 1) - centerX)*enlargeRate + ((context.width-width/enlargeRate) >> 1)+X_shift*enlargeRate;
     9ab:	8b 45 0c             	mov    0xc(%ebp),%eax
     9ae:	d1 f8                	sar    %eax
     9b0:	2b 45 18             	sub    0x18(%ebp),%eax
     9b3:	0f af 45 14          	imul   0x14(%ebp),%eax
     9b7:	89 c1                	mov    %eax,%ecx
     9b9:	8b 5d 0c             	mov    0xc(%ebp),%ebx
     9bc:	8b 45 f4             	mov    -0xc(%ebp),%eax
     9bf:	99                   	cltd   
     9c0:	f7 7d 14             	idivl  0x14(%ebp)
     9c3:	29 c3                	sub    %eax,%ebx
     9c5:	89 d8                	mov    %ebx,%eax
     9c7:	d1 f8                	sar    %eax
     9c9:	8d 14 01             	lea    (%ecx,%eax,1),%edx
     9cc:	a1 0c ec 00 00       	mov    0xec0c,%eax
     9d1:	0f af 45 14          	imul   0x14(%ebp),%eax
     9d5:	01 d0                	add    %edx,%eax
     9d7:	a3 04 ec 00 00       	mov    %eax,0xec04
	startYsave = TOPBAR_HEIGHT + (((context.height-TOPBAR_HEIGHT) >> 1) - (centerY-TOPBAR_HEIGHT))*enlargeRate + ((context.height-TOPBAR_HEIGHT-height/enlargeRate) >> 1)+Y_shift*enlargeRate;
     9dc:	8b 45 10             	mov    0x10(%ebp),%eax
     9df:	83 e8 14             	sub    $0x14,%eax
     9e2:	d1 f8                	sar    %eax
     9e4:	89 c2                	mov    %eax,%edx
     9e6:	b8 14 00 00 00       	mov    $0x14,%eax
     9eb:	2b 45 1c             	sub    0x1c(%ebp),%eax
     9ee:	01 d0                	add    %edx,%eax
     9f0:	0f af 45 14          	imul   0x14(%ebp),%eax
     9f4:	8d 48 14             	lea    0x14(%eax),%ecx
     9f7:	8b 45 10             	mov    0x10(%ebp),%eax
     9fa:	8d 58 ec             	lea    -0x14(%eax),%ebx
     9fd:	8b 45 f0             	mov    -0x10(%ebp),%eax
     a00:	99                   	cltd   
     a01:	f7 7d 14             	idivl  0x14(%ebp)
     a04:	29 c3                	sub    %eax,%ebx
     a06:	89 d8                	mov    %ebx,%eax
     a08:	d1 f8                	sar    %eax
     a0a:	8d 14 01             	lea    (%ecx,%eax,1),%edx
     a0d:	a1 10 ec 00 00       	mov    0xec10,%eax
     a12:	0f af 45 14          	imul   0x14(%ebp),%eax
     a16:	01 d0                	add    %edx,%eax
     a18:	a3 08 ec 00 00       	mov    %eax,0xec08

	printf(0,"Enlarge: context_width: %d, context_height: %d\n", context.width, context.height);
     a1d:	8b 55 10             	mov    0x10(%ebp),%edx
     a20:	8b 45 0c             	mov    0xc(%ebp),%eax
     a23:	89 54 24 0c          	mov    %edx,0xc(%esp)
     a27:	89 44 24 08          	mov    %eax,0x8(%esp)
     a2b:	c7 44 24 04 ec a9 00 	movl   $0xa9ec,0x4(%esp)
     a32:	00 
     a33:	c7 04 24 00 00 00 00 	movl   $0x0,(%esp)
     a3a:	e8 03 39 00 00       	call   4342 <printf>
	printf(0,"Enlarge: width: %d, height: %d\n", width, height);
     a3f:	8b 45 f0             	mov    -0x10(%ebp),%eax
     a42:	89 44 24 0c          	mov    %eax,0xc(%esp)
     a46:	8b 45 f4             	mov    -0xc(%ebp),%eax
     a49:	89 44 24 08          	mov    %eax,0x8(%esp)
     a4d:	c7 44 24 04 1c aa 00 	movl   $0xaa1c,0x4(%esp)
     a54:	00 
     a55:	c7 04 24 00 00 00 00 	movl   $0x0,(%esp)
     a5c:	e8 e1 38 00 00       	call   4342 <printf>
        printf(0,"Enlarge: centerX: %d, centerY: %d\n", centerX, centerY);
     a61:	8b 45 1c             	mov    0x1c(%ebp),%eax
     a64:	89 44 24 0c          	mov    %eax,0xc(%esp)
     a68:	8b 45 18             	mov    0x18(%ebp),%eax
     a6b:	89 44 24 08          	mov    %eax,0x8(%esp)
     a6f:	c7 44 24 04 3c aa 00 	movl   $0xaa3c,0x4(%esp)
     a76:	00 
     a77:	c7 04 24 00 00 00 00 	movl   $0x0,(%esp)
     a7e:	e8 bf 38 00 00       	call   4342 <printf>
 	updateWindowWithoutBlank(context);
     a83:	8b 45 08             	mov    0x8(%ebp),%eax
     a86:	89 04 24             	mov    %eax,(%esp)
     a89:	8b 45 0c             	mov    0xc(%ebp),%eax
     a8c:	89 44 24 04          	mov    %eax,0x4(%esp)
     a90:	8b 45 10             	mov    0x10(%ebp),%eax
     a93:	89 44 24 08          	mov    %eax,0x8(%esp)
     a97:	e8 7b 07 00 00       	call   1217 <updateWindowWithoutBlank>
	X_shift *= ((context.width-width/enlargeRate) >> 1)+X_shift*enlargeRate;
     a9c:	8b 4d 0c             	mov    0xc(%ebp),%ecx
     a9f:	8b 45 f4             	mov    -0xc(%ebp),%eax
     aa2:	99                   	cltd   
     aa3:	f7 7d 14             	idivl  0x14(%ebp)
     aa6:	29 c1                	sub    %eax,%ecx
     aa8:	89 c8                	mov    %ecx,%eax
     aaa:	d1 f8                	sar    %eax
     aac:	89 c2                	mov    %eax,%edx
     aae:	a1 0c ec 00 00       	mov    0xec0c,%eax
     ab3:	0f af 45 14          	imul   0x14(%ebp),%eax
     ab7:	01 c2                	add    %eax,%edx
     ab9:	a1 0c ec 00 00       	mov    0xec0c,%eax
     abe:	0f af c2             	imul   %edx,%eax
     ac1:	a3 0c ec 00 00       	mov    %eax,0xec0c
    	Y_shift *= ((context.height-TOPBAR_HEIGHT-height/enlargeRate) >> 1)+Y_shift*enlargeRate;
     ac6:	8b 45 10             	mov    0x10(%ebp),%eax
     ac9:	8d 48 ec             	lea    -0x14(%eax),%ecx
     acc:	8b 45 f0             	mov    -0x10(%ebp),%eax
     acf:	99                   	cltd   
     ad0:	f7 7d 14             	idivl  0x14(%ebp)
     ad3:	29 c1                	sub    %eax,%ecx
     ad5:	89 c8                	mov    %ecx,%eax
     ad7:	d1 f8                	sar    %eax
     ad9:	89 c2                	mov    %eax,%edx
     adb:	a1 10 ec 00 00       	mov    0xec10,%eax
     ae0:	0f af 45 14          	imul   0x14(%ebp),%eax
     ae4:	01 c2                	add    %eax,%edx
     ae6:	a1 10 ec 00 00       	mov    0xec10,%eax
     aeb:	0f af c2             	imul   %edx,%eax
     aee:	a3 10 ec 00 00       	mov    %eax,0xec10
}
     af3:	83 c4 30             	add    $0x30,%esp
     af6:	5b                   	pop    %ebx
     af7:	5e                   	pop    %esi
     af8:	5d                   	pop    %ebp
     af9:	c3                   	ret    

00000afa <narrowPic>:

//缩小图片
void narrowPic(Context context,int narrowRate,int centerX, int centerY)
{
     afa:	55                   	push   %ebp
     afb:	89 e5                	mov    %esp,%ebp
     afd:	83 ec 48             	sub    $0x48,%esp
    int width = pic.width/(double)narrowRate;
     b00:	a1 04 1a 01 00       	mov    0x11a04,%eax
     b05:	89 45 e4             	mov    %eax,-0x1c(%ebp)
     b08:	db 45 e4             	fildl  -0x1c(%ebp)
     b0b:	db 45 14             	fildl  0x14(%ebp)
     b0e:	de f9                	fdivrp %st,%st(1)
     b10:	d9 7d e2             	fnstcw -0x1e(%ebp)
     b13:	0f b7 45 e2          	movzwl -0x1e(%ebp),%eax
     b17:	b4 0c                	mov    $0xc,%ah
     b19:	66 89 45 e0          	mov    %ax,-0x20(%ebp)
     b1d:	d9 6d e0             	fldcw  -0x20(%ebp)
     b20:	db 5d f4             	fistpl -0xc(%ebp)
     b23:	d9 6d e2             	fldcw  -0x1e(%ebp)
    int height = pic.height/(double)narrowRate;
     b26:	a1 08 1a 01 00       	mov    0x11a08,%eax
     b2b:	89 45 e4             	mov    %eax,-0x1c(%ebp)
     b2e:	db 45 e4             	fildl  -0x1c(%ebp)
     b31:	db 45 14             	fildl  0x14(%ebp)
     b34:	de f9                	fdivrp %st,%st(1)
     b36:	d9 6d e0             	fldcw  -0x20(%ebp)
     b39:	db 5d f0             	fistpl -0x10(%ebp)
     b3c:	d9 6d e2             	fldcw  -0x1e(%ebp)
    compressPic(width,height);
     b3f:	8b 45 f0             	mov    -0x10(%ebp),%eax
     b42:	89 44 24 04          	mov    %eax,0x4(%esp)
     b46:	8b 45 f4             	mov    -0xc(%ebp),%eax
     b49:	89 04 24             	mov    %eax,(%esp)
     b4c:	e8 dd f4 ff ff       	call   2e <compressPic>
    /*int centerConX = context.width/2.0;
    int centerConY = context.height/2.0;
    int moveX = centerConX - centerX;
    int moveY = centerConY - centerY;*/
    drawPicViewerWnd(context);
     b51:	8b 45 08             	mov    0x8(%ebp),%eax
     b54:	89 04 24             	mov    %eax,(%esp)
     b57:	8b 45 0c             	mov    0xc(%ebp),%eax
     b5a:	89 44 24 04          	mov    %eax,0x4(%esp)
     b5e:	8b 45 10             	mov    0x10(%ebp),%eax
     b61:	89 44 24 08          	mov    %eax,0x8(%esp)
     b65:	e8 b3 03 00 00       	call   f1d <drawPicViewerWnd>
    draw_picture(context, pic, (context.width-width) >> 1, TOPBAR_HEIGHT + ((context.height-height) >> 1));
     b6a:	8b 45 10             	mov    0x10(%ebp),%eax
     b6d:	2b 45 f0             	sub    -0x10(%ebp),%eax
     b70:	d1 f8                	sar    %eax
     b72:	8d 50 14             	lea    0x14(%eax),%edx
     b75:	8b 45 0c             	mov    0xc(%ebp),%eax
     b78:	2b 45 f4             	sub    -0xc(%ebp),%eax
     b7b:	d1 f8                	sar    %eax
     b7d:	89 54 24 1c          	mov    %edx,0x1c(%esp)
     b81:	89 44 24 18          	mov    %eax,0x18(%esp)
     b85:	a1 00 1a 01 00       	mov    0x11a00,%eax
     b8a:	89 44 24 0c          	mov    %eax,0xc(%esp)
     b8e:	a1 04 1a 01 00       	mov    0x11a04,%eax
     b93:	89 44 24 10          	mov    %eax,0x10(%esp)
     b97:	a1 08 1a 01 00       	mov    0x11a08,%eax
     b9c:	89 44 24 14          	mov    %eax,0x14(%esp)
     ba0:	8b 45 08             	mov    0x8(%ebp),%eax
     ba3:	89 04 24             	mov    %eax,(%esp)
     ba6:	8b 45 0c             	mov    0xc(%ebp),%eax
     ba9:	89 44 24 04          	mov    %eax,0x4(%esp)
     bad:	8b 45 10             	mov    0x10(%ebp),%eax
     bb0:	89 44 24 08          	mov    %eax,0x8(%esp)
     bb4:	e8 9f 1e 00 00       	call   2a58 <draw_picture>
    startXsave = (context.width-width) >> 1;
     bb9:	8b 45 0c             	mov    0xc(%ebp),%eax
     bbc:	2b 45 f4             	sub    -0xc(%ebp),%eax
     bbf:	d1 f8                	sar    %eax
     bc1:	a3 04 ec 00 00       	mov    %eax,0xec04
    startYsave = TOPBAR_HEIGHT + ((context.height-height) >> 1);
     bc6:	8b 45 10             	mov    0x10(%ebp),%eax
     bc9:	2b 45 f0             	sub    -0x10(%ebp),%eax
     bcc:	d1 f8                	sar    %eax
     bce:	83 c0 14             	add    $0x14,%eax
     bd1:	a3 08 ec 00 00       	mov    %eax,0xec08
    X_shift = 0;
     bd6:	c7 05 0c ec 00 00 00 	movl   $0x0,0xec0c
     bdd:	00 00 00 
    Y_shift = 0;
     be0:	c7 05 10 ec 00 00 00 	movl   $0x0,0xec10
     be7:	00 00 00 
}
     bea:	c9                   	leave  
     beb:	c3                   	ret    

00000bec <zoomingPic>:

//图片放缩
void zoomingPic(Context context,int centerX, int centerY)
{
     bec:	55                   	push   %ebp
     bed:	89 e5                	mov    %esp,%ebp
     bef:	83 ec 38             	sub    $0x38,%esp
	
    if(centerX > context.width || centerY > context.height) return;
     bf2:	8b 45 0c             	mov    0xc(%ebp),%eax
     bf5:	3b 45 14             	cmp    0x14(%ebp),%eax
     bf8:	7c 08                	jl     c02 <zoomingPic+0x16>
     bfa:	8b 45 10             	mov    0x10(%ebp),%eax
     bfd:	3b 45 18             	cmp    0x18(%ebp),%eax
     c00:	7d 05                	jge    c07 <zoomingPic+0x1b>
     c02:	e9 97 00 00 00       	jmp    c9e <zoomingPic+0xb2>
    int rate = 2;//待定等改
     c07:	c7 45 f4 02 00 00 00 	movl   $0x2,-0xc(%ebp)
    switch(isZooming)
     c0e:	a1 fc e6 00 00       	mov    0xe6fc,%eax
     c13:	83 f8 01             	cmp    $0x1,%eax
     c16:	74 07                	je     c1f <zoomingPic+0x33>
     c18:	83 f8 02             	cmp    $0x2,%eax
     c1b:	74 3c                	je     c59 <zoomingPic+0x6d>
     c1d:	eb 74                	jmp    c93 <zoomingPic+0xa7>
    {
        case 1:
            enlargePic(context,rate,centerX,centerY);
     c1f:	8b 45 18             	mov    0x18(%ebp),%eax
     c22:	89 44 24 14          	mov    %eax,0x14(%esp)
     c26:	8b 45 14             	mov    0x14(%ebp),%eax
     c29:	89 44 24 10          	mov    %eax,0x10(%esp)
     c2d:	8b 45 f4             	mov    -0xc(%ebp),%eax
     c30:	89 44 24 0c          	mov    %eax,0xc(%esp)
     c34:	8b 45 08             	mov    0x8(%ebp),%eax
     c37:	89 04 24             	mov    %eax,(%esp)
     c3a:	8b 45 0c             	mov    0xc(%ebp),%eax
     c3d:	89 44 24 04          	mov    %eax,0x4(%esp)
     c41:	8b 45 10             	mov    0x10(%ebp),%eax
     c44:	89 44 24 08          	mov    %eax,0x8(%esp)
     c48:	e8 4d fc ff ff       	call   89a <enlargePic>
            isZooming = 2;
     c4d:	c7 05 fc e6 00 00 02 	movl   $0x2,0xe6fc
     c54:	00 00 00 
            break;
     c57:	eb 45                	jmp    c9e <zoomingPic+0xb2>
        case 2:
            narrowPic(context,rate,centerX,centerY);
     c59:	8b 45 18             	mov    0x18(%ebp),%eax
     c5c:	89 44 24 14          	mov    %eax,0x14(%esp)
     c60:	8b 45 14             	mov    0x14(%ebp),%eax
     c63:	89 44 24 10          	mov    %eax,0x10(%esp)
     c67:	8b 45 f4             	mov    -0xc(%ebp),%eax
     c6a:	89 44 24 0c          	mov    %eax,0xc(%esp)
     c6e:	8b 45 08             	mov    0x8(%ebp),%eax
     c71:	89 04 24             	mov    %eax,(%esp)
     c74:	8b 45 0c             	mov    0xc(%ebp),%eax
     c77:	89 44 24 04          	mov    %eax,0x4(%esp)
     c7b:	8b 45 10             	mov    0x10(%ebp),%eax
     c7e:	89 44 24 08          	mov    %eax,0x8(%esp)
     c82:	e8 73 fe ff ff       	call   afa <narrowPic>
            isZooming = 1;
     c87:	c7 05 fc e6 00 00 01 	movl   $0x1,0xe6fc
     c8e:	00 00 00 
            break;
     c91:	eb 0b                	jmp    c9e <zoomingPic+0xb2>
        default:
            isZooming = 1;
     c93:	c7 05 fc e6 00 00 01 	movl   $0x1,0xe6fc
     c9a:	00 00 00 
            break;
     c9d:	90                   	nop
    }
} 
     c9e:	c9                   	leave  
     c9f:	c3                   	ret    

00000ca0 <rollingPic>:

//Picture Rolling
void rollingPic(Context context)
{
     ca0:	55                   	push   %ebp
     ca1:	89 e5                	mov    %esp,%ebp
     ca3:	53                   	push   %ebx
     ca4:	83 ec 34             	sub    $0x34,%esp
	RGBQUAD* cache = (RGBQUAD *) malloc(pic.width * pic.height * sizeof(RGBQUAD));
     ca7:	8b 15 04 1a 01 00    	mov    0x11a04,%edx
     cad:	a1 08 1a 01 00       	mov    0x11a08,%eax
     cb2:	0f af c2             	imul   %edx,%eax
     cb5:	c1 e0 02             	shl    $0x2,%eax
     cb8:	89 04 24             	mov    %eax,(%esp)
     cbb:	e8 6e 39 00 00       	call   462e <malloc>
     cc0:	89 45 ec             	mov    %eax,-0x14(%ebp)
	int i,j;
	for (i = 0; i < pic.height; i++){
     cc3:	c7 45 f4 00 00 00 00 	movl   $0x0,-0xc(%ebp)
     cca:	eb 60                	jmp    d2c <rollingPic+0x8c>
		for(j = 0; j < pic.width;j++){
     ccc:	c7 45 f0 00 00 00 00 	movl   $0x0,-0x10(%ebp)
     cd3:	eb 49                	jmp    d1e <rollingPic+0x7e>
			cache[(pic.width - 1 - j)*pic.height + i] = pic.data[i*pic.width + j];
     cd5:	a1 04 1a 01 00       	mov    0x11a04,%eax
     cda:	83 e8 01             	sub    $0x1,%eax
     cdd:	2b 45 f0             	sub    -0x10(%ebp),%eax
     ce0:	89 c2                	mov    %eax,%edx
     ce2:	a1 08 1a 01 00       	mov    0x11a08,%eax
     ce7:	0f af d0             	imul   %eax,%edx
     cea:	8b 45 f4             	mov    -0xc(%ebp),%eax
     ced:	01 d0                	add    %edx,%eax
     cef:	8d 14 85 00 00 00 00 	lea    0x0(,%eax,4),%edx
     cf6:	8b 45 ec             	mov    -0x14(%ebp),%eax
     cf9:	01 c2                	add    %eax,%edx
     cfb:	8b 0d 00 1a 01 00    	mov    0x11a00,%ecx
     d01:	a1 04 1a 01 00       	mov    0x11a04,%eax
     d06:	0f af 45 f4          	imul   -0xc(%ebp),%eax
     d0a:	89 c3                	mov    %eax,%ebx
     d0c:	8b 45 f0             	mov    -0x10(%ebp),%eax
     d0f:	01 d8                	add    %ebx,%eax
     d11:	c1 e0 02             	shl    $0x2,%eax
     d14:	01 c8                	add    %ecx,%eax
     d16:	8b 00                	mov    (%eax),%eax
     d18:	89 02                	mov    %eax,(%edx)
void rollingPic(Context context)
{
	RGBQUAD* cache = (RGBQUAD *) malloc(pic.width * pic.height * sizeof(RGBQUAD));
	int i,j;
	for (i = 0; i < pic.height; i++){
		for(j = 0; j < pic.width;j++){
     d1a:	83 45 f0 01          	addl   $0x1,-0x10(%ebp)
     d1e:	a1 04 1a 01 00       	mov    0x11a04,%eax
     d23:	3b 45 f0             	cmp    -0x10(%ebp),%eax
     d26:	7f ad                	jg     cd5 <rollingPic+0x35>
//Picture Rolling
void rollingPic(Context context)
{
	RGBQUAD* cache = (RGBQUAD *) malloc(pic.width * pic.height * sizeof(RGBQUAD));
	int i,j;
	for (i = 0; i < pic.height; i++){
     d28:	83 45 f4 01          	addl   $0x1,-0xc(%ebp)
     d2c:	a1 08 1a 01 00       	mov    0x11a08,%eax
     d31:	3b 45 f4             	cmp    -0xc(%ebp),%eax
     d34:	7f 96                	jg     ccc <rollingPic+0x2c>
		for(j = 0; j < pic.width;j++){
			cache[(pic.width - 1 - j)*pic.height + i] = pic.data[i*pic.width + j];
		}	
	}
	free(pic.data);
     d36:	a1 00 1a 01 00       	mov    0x11a00,%eax
     d3b:	89 04 24             	mov    %eax,(%esp)
     d3e:	e8 b2 37 00 00       	call   44f5 <free>
	i = pic.width;
     d43:	a1 04 1a 01 00       	mov    0x11a04,%eax
     d48:	89 45 f4             	mov    %eax,-0xc(%ebp)
	pic.width = pic.height;
     d4b:	a1 08 1a 01 00       	mov    0x11a08,%eax
     d50:	a3 04 1a 01 00       	mov    %eax,0x11a04
	pic.height = i;
     d55:	8b 45 f4             	mov    -0xc(%ebp),%eax
     d58:	a3 08 1a 01 00       	mov    %eax,0x11a08
	pic.data = cache;	
     d5d:	8b 45 ec             	mov    -0x14(%ebp),%eax
     d60:	a3 00 1a 01 00       	mov    %eax,0x11a00
	drawPicViewerWnd(context);
     d65:	8b 45 08             	mov    0x8(%ebp),%eax
     d68:	89 04 24             	mov    %eax,(%esp)
     d6b:	8b 45 0c             	mov    0xc(%ebp),%eax
     d6e:	89 44 24 04          	mov    %eax,0x4(%esp)
     d72:	8b 45 10             	mov    0x10(%ebp),%eax
     d75:	89 44 24 08          	mov    %eax,0x8(%esp)
     d79:	e8 9f 01 00 00       	call   f1d <drawPicViewerWnd>
    	draw_picture(context, pic, (context.width-pic.width) >> 1, TOPBAR_HEIGHT + ((context.height-pic.height) >> 1));
     d7e:	8b 55 10             	mov    0x10(%ebp),%edx
     d81:	a1 08 1a 01 00       	mov    0x11a08,%eax
     d86:	29 c2                	sub    %eax,%edx
     d88:	89 d0                	mov    %edx,%eax
     d8a:	d1 f8                	sar    %eax
     d8c:	8d 50 14             	lea    0x14(%eax),%edx
     d8f:	8b 4d 0c             	mov    0xc(%ebp),%ecx
     d92:	a1 04 1a 01 00       	mov    0x11a04,%eax
     d97:	29 c1                	sub    %eax,%ecx
     d99:	89 c8                	mov    %ecx,%eax
     d9b:	d1 f8                	sar    %eax
     d9d:	89 54 24 1c          	mov    %edx,0x1c(%esp)
     da1:	89 44 24 18          	mov    %eax,0x18(%esp)
     da5:	a1 00 1a 01 00       	mov    0x11a00,%eax
     daa:	89 44 24 0c          	mov    %eax,0xc(%esp)
     dae:	a1 04 1a 01 00       	mov    0x11a04,%eax
     db3:	89 44 24 10          	mov    %eax,0x10(%esp)
     db7:	a1 08 1a 01 00       	mov    0x11a08,%eax
     dbc:	89 44 24 14          	mov    %eax,0x14(%esp)
     dc0:	8b 45 08             	mov    0x8(%ebp),%eax
     dc3:	89 04 24             	mov    %eax,(%esp)
     dc6:	8b 45 0c             	mov    0xc(%ebp),%eax
     dc9:	89 44 24 04          	mov    %eax,0x4(%esp)
     dcd:	8b 45 10             	mov    0x10(%ebp),%eax
     dd0:	89 44 24 08          	mov    %eax,0x8(%esp)
     dd4:	e8 7f 1c 00 00       	call   2a58 <draw_picture>
	startXsave = (context.width-pic.width) >> 1;
     dd9:	8b 55 0c             	mov    0xc(%ebp),%edx
     ddc:	a1 04 1a 01 00       	mov    0x11a04,%eax
     de1:	29 c2                	sub    %eax,%edx
     de3:	89 d0                	mov    %edx,%eax
     de5:	d1 f8                	sar    %eax
     de7:	a3 04 ec 00 00       	mov    %eax,0xec04
        startYsave = TOPBAR_HEIGHT + ((context.height-pic.height) >> 1);
     dec:	8b 55 10             	mov    0x10(%ebp),%edx
     def:	a1 08 1a 01 00       	mov    0x11a08,%eax
     df4:	29 c2                	sub    %eax,%edx
     df6:	89 d0                	mov    %edx,%eax
     df8:	d1 f8                	sar    %eax
     dfa:	83 c0 14             	add    $0x14,%eax
     dfd:	a3 08 ec 00 00       	mov    %eax,0xec08
	updateWindowWithoutBlank(context);
     e02:	8b 45 08             	mov    0x8(%ebp),%eax
     e05:	89 04 24             	mov    %eax,(%esp)
     e08:	8b 45 0c             	mov    0xc(%ebp),%eax
     e0b:	89 44 24 04          	mov    %eax,0x4(%esp)
     e0f:	8b 45 10             	mov    0x10(%ebp),%eax
     e12:	89 44 24 08          	mov    %eax,0x8(%esp)
     e16:	e8 fc 03 00 00       	call   1217 <updateWindowWithoutBlank>
	
}
     e1b:	83 c4 34             	add    $0x34,%esp
     e1e:	5b                   	pop    %ebx
     e1f:	5d                   	pop    %ebp
     e20:	c3                   	ret    

00000e21 <nextPic>:

//Picture next
void nextPic(Context context)
{
     e21:	55                   	push   %ebp
     e22:	89 e5                	mov    %esp,%ebp
     e24:	83 ec 18             	sub    $0x18,%esp
	X_shift = 0;
     e27:	c7 05 0c ec 00 00 00 	movl   $0x0,0xec0c
     e2e:	00 00 00 
	Y_shift = 0;
     e31:	c7 05 10 ec 00 00 00 	movl   $0x0,0xec10
     e38:	00 00 00 
	isZooming = 1;
     e3b:	c7 05 fc e6 00 00 01 	movl   $0x1,0xe6fc
     e42:	00 00 00 
	pos = (pos+1) % len;	
     e45:	a1 0c 1a 01 00       	mov    0x11a0c,%eax
     e4a:	83 c0 01             	add    $0x1,%eax
     e4d:	8b 0d b0 1b 01 00    	mov    0x11bb0,%ecx
     e53:	99                   	cltd   
     e54:	f7 f9                	idiv   %ecx
     e56:	89 d0                	mov    %edx,%eax
     e58:	a3 0c 1a 01 00       	mov    %eax,0x11a0c
	if(pos==0)pos++;
     e5d:	a1 0c 1a 01 00       	mov    0x11a0c,%eax
     e62:	85 c0                	test   %eax,%eax
     e64:	75 0d                	jne    e73 <nextPic+0x52>
     e66:	a1 0c 1a 01 00       	mov    0x11a0c,%eax
     e6b:	83 c0 01             	add    $0x1,%eax
     e6e:	a3 0c 1a 01 00       	mov    %eax,0x11a0c
	printf(0,"%d\n",pos);
     e73:	a1 0c 1a 01 00       	mov    0x11a0c,%eax
     e78:	89 44 24 08          	mov    %eax,0x8(%esp)
     e7c:	c7 44 24 04 5f aa 00 	movl   $0xaa5f,0x4(%esp)
     e83:	00 
     e84:	c7 04 24 00 00 00 00 	movl   $0x0,(%esp)
     e8b:	e8 b2 34 00 00       	call   4342 <printf>
	loadBitmap(&pic, file[pos]);
     e90:	a1 0c 1a 01 00       	mov    0x11a0c,%eax
     e95:	8b 04 85 20 1a 01 00 	mov    0x11a20(,%eax,4),%eax
     e9c:	89 44 24 04          	mov    %eax,0x4(%esp)
     ea0:	c7 04 24 00 1a 01 00 	movl   $0x11a00,(%esp)
     ea7:	e8 dc 20 00 00       	call   2f88 <loadBitmap>
	drawPicViewerWnd(context);
     eac:	8b 45 08             	mov    0x8(%ebp),%eax
     eaf:	89 04 24             	mov    %eax,(%esp)
     eb2:	8b 45 0c             	mov    0xc(%ebp),%eax
     eb5:	89 44 24 04          	mov    %eax,0x4(%esp)
     eb9:	8b 45 10             	mov    0x10(%ebp),%eax
     ebc:	89 44 24 08          	mov    %eax,0x8(%esp)
     ec0:	e8 58 00 00 00       	call   f1d <drawPicViewerWnd>
	drawPicViewerContent(context, file[pos]);
     ec5:	a1 0c 1a 01 00       	mov    0x11a0c,%eax
     eca:	8b 04 85 20 1a 01 00 	mov    0x11a20(,%eax,4),%eax
     ed1:	89 44 24 0c          	mov    %eax,0xc(%esp)
     ed5:	8b 45 08             	mov    0x8(%ebp),%eax
     ed8:	89 04 24             	mov    %eax,(%esp)
     edb:	8b 45 0c             	mov    0xc(%ebp),%eax
     ede:	89 44 24 04          	mov    %eax,0x4(%esp)
     ee2:	8b 45 10             	mov    0x10(%ebp),%eax
     ee5:	89 44 24 08          	mov    %eax,0x8(%esp)
     ee9:	e8 0b 06 00 00       	call   14f9 <drawPicViewerContent>
	updateWindowWithoutBlank(context);
     eee:	8b 45 08             	mov    0x8(%ebp),%eax
     ef1:	89 04 24             	mov    %eax,(%esp)
     ef4:	8b 45 0c             	mov    0xc(%ebp),%eax
     ef7:	89 44 24 04          	mov    %eax,0x4(%esp)
     efb:	8b 45 10             	mov    0x10(%ebp),%eax
     efe:	89 44 24 08          	mov    %eax,0x8(%esp)
     f02:	e8 10 03 00 00       	call   1217 <updateWindowWithoutBlank>
	


	printf(0,"NEXT!\n");
     f07:	c7 44 24 04 63 aa 00 	movl   $0xaa63,0x4(%esp)
     f0e:	00 
     f0f:	c7 04 24 00 00 00 00 	movl   $0x0,(%esp)
     f16:	e8 27 34 00 00       	call   4342 <printf>
	
}
     f1b:	c9                   	leave  
     f1c:	c3                   	ret    

00000f1d <drawPicViewerWnd>:


// 绘制窗口
void drawPicViewerWnd(Context context) {
     f1d:	55                   	push   %ebp
     f1e:	89 e5                	mov    %esp,%ebp
     f20:	83 ec 48             	sub    $0x48,%esp
    int width, height;

    width = context.width;
     f23:	8b 45 0c             	mov    0xc(%ebp),%eax
     f26:	89 45 f4             	mov    %eax,-0xc(%ebp)
    height = context.height;
     f29:	8b 45 10             	mov    0x10(%ebp),%eax
     f2c:	89 45 f0             	mov    %eax,-0x10(%ebp)

    fill_rect(context, 0, 0, width, height, 0xFFFF);
     f2f:	8b 55 f0             	mov    -0x10(%ebp),%edx
     f32:	8b 45 f4             	mov    -0xc(%ebp),%eax
     f35:	c7 44 24 1c ff ff 00 	movl   $0xffff,0x1c(%esp)
     f3c:	00 
     f3d:	89 54 24 18          	mov    %edx,0x18(%esp)
     f41:	89 44 24 14          	mov    %eax,0x14(%esp)
     f45:	c7 44 24 10 00 00 00 	movl   $0x0,0x10(%esp)
     f4c:	00 
     f4d:	c7 44 24 0c 00 00 00 	movl   $0x0,0xc(%esp)
     f54:	00 
     f55:	8b 45 08             	mov    0x8(%ebp),%eax
     f58:	89 04 24             	mov    %eax,(%esp)
     f5b:	8b 45 0c             	mov    0xc(%ebp),%eax
     f5e:	89 44 24 04          	mov    %eax,0x4(%esp)
     f62:	8b 45 10             	mov    0x10(%ebp),%eax
     f65:	89 44 24 08          	mov    %eax,0x8(%esp)
     f69:	e8 4b 14 00 00       	call   23b9 <fill_rect>

    draw_line(context, 0, 0, width-1, 0, BORDERLINE_COLOR);
     f6e:	8b 45 f4             	mov    -0xc(%ebp),%eax
     f71:	83 e8 01             	sub    $0x1,%eax
     f74:	c7 44 24 1c 00 00 00 	movl   $0x0,0x1c(%esp)
     f7b:	00 
     f7c:	c7 44 24 18 00 00 00 	movl   $0x0,0x18(%esp)
     f83:	00 
     f84:	89 44 24 14          	mov    %eax,0x14(%esp)
     f88:	c7 44 24 10 00 00 00 	movl   $0x0,0x10(%esp)
     f8f:	00 
     f90:	c7 44 24 0c 00 00 00 	movl   $0x0,0xc(%esp)
     f97:	00 
     f98:	8b 45 08             	mov    0x8(%ebp),%eax
     f9b:	89 04 24             	mov    %eax,(%esp)
     f9e:	8b 45 0c             	mov    0xc(%ebp),%eax
     fa1:	89 44 24 04          	mov    %eax,0x4(%esp)
     fa5:	8b 45 10             	mov    0x10(%ebp),%eax
     fa8:	89 44 24 08          	mov    %eax,0x8(%esp)
     fac:	e8 7d 1b 00 00       	call   2b2e <draw_line>
    draw_line(context, width-1, 0, width-1, height-1, BORDERLINE_COLOR);
     fb1:	8b 45 f0             	mov    -0x10(%ebp),%eax
     fb4:	8d 48 ff             	lea    -0x1(%eax),%ecx
     fb7:	8b 45 f4             	mov    -0xc(%ebp),%eax
     fba:	8d 50 ff             	lea    -0x1(%eax),%edx
     fbd:	8b 45 f4             	mov    -0xc(%ebp),%eax
     fc0:	83 e8 01             	sub    $0x1,%eax
     fc3:	c7 44 24 1c 00 00 00 	movl   $0x0,0x1c(%esp)
     fca:	00 
     fcb:	89 4c 24 18          	mov    %ecx,0x18(%esp)
     fcf:	89 54 24 14          	mov    %edx,0x14(%esp)
     fd3:	c7 44 24 10 00 00 00 	movl   $0x0,0x10(%esp)
     fda:	00 
     fdb:	89 44 24 0c          	mov    %eax,0xc(%esp)
     fdf:	8b 45 08             	mov    0x8(%ebp),%eax
     fe2:	89 04 24             	mov    %eax,(%esp)
     fe5:	8b 45 0c             	mov    0xc(%ebp),%eax
     fe8:	89 44 24 04          	mov    %eax,0x4(%esp)
     fec:	8b 45 10             	mov    0x10(%ebp),%eax
     fef:	89 44 24 08          	mov    %eax,0x8(%esp)
     ff3:	e8 36 1b 00 00       	call   2b2e <draw_line>
    draw_line(context, 0, height-1, width-1, height-1, BORDERLINE_COLOR);
     ff8:	8b 45 f0             	mov    -0x10(%ebp),%eax
     ffb:	8d 48 ff             	lea    -0x1(%eax),%ecx
     ffe:	8b 45 f4             	mov    -0xc(%ebp),%eax
    1001:	8d 50 ff             	lea    -0x1(%eax),%edx
    1004:	8b 45 f0             	mov    -0x10(%ebp),%eax
    1007:	83 e8 01             	sub    $0x1,%eax
    100a:	c7 44 24 1c 00 00 00 	movl   $0x0,0x1c(%esp)
    1011:	00 
    1012:	89 4c 24 18          	mov    %ecx,0x18(%esp)
    1016:	89 54 24 14          	mov    %edx,0x14(%esp)
    101a:	89 44 24 10          	mov    %eax,0x10(%esp)
    101e:	c7 44 24 0c 00 00 00 	movl   $0x0,0xc(%esp)
    1025:	00 
    1026:	8b 45 08             	mov    0x8(%ebp),%eax
    1029:	89 04 24             	mov    %eax,(%esp)
    102c:	8b 45 0c             	mov    0xc(%ebp),%eax
    102f:	89 44 24 04          	mov    %eax,0x4(%esp)
    1033:	8b 45 10             	mov    0x10(%ebp),%eax
    1036:	89 44 24 08          	mov    %eax,0x8(%esp)
    103a:	e8 ef 1a 00 00       	call   2b2e <draw_line>
    draw_line(context, 0, height-1, 0, 0, BORDERLINE_COLOR);
    103f:	8b 45 f0             	mov    -0x10(%ebp),%eax
    1042:	83 e8 01             	sub    $0x1,%eax
    1045:	c7 44 24 1c 00 00 00 	movl   $0x0,0x1c(%esp)
    104c:	00 
    104d:	c7 44 24 18 00 00 00 	movl   $0x0,0x18(%esp)
    1054:	00 
    1055:	c7 44 24 14 00 00 00 	movl   $0x0,0x14(%esp)
    105c:	00 
    105d:	89 44 24 10          	mov    %eax,0x10(%esp)
    1061:	c7 44 24 0c 00 00 00 	movl   $0x0,0xc(%esp)
    1068:	00 
    1069:	8b 45 08             	mov    0x8(%ebp),%eax
    106c:	89 04 24             	mov    %eax,(%esp)
    106f:	8b 45 0c             	mov    0xc(%ebp),%eax
    1072:	89 44 24 04          	mov    %eax,0x4(%esp)
    1076:	8b 45 10             	mov    0x10(%ebp),%eax
    1079:	89 44 24 08          	mov    %eax,0x8(%esp)
    107d:	e8 ac 1a 00 00       	call   2b2e <draw_line>

    fill_rect(context, 1, 1, width-2, TOPBAR_HEIGHT, TOPBAR_COLOR);
    1082:	8b 45 f4             	mov    -0xc(%ebp),%eax
    1085:	83 e8 02             	sub    $0x2,%eax
    1088:	c7 44 24 1c cb 5a 00 	movl   $0x5acb,0x1c(%esp)
    108f:	00 
    1090:	c7 44 24 18 14 00 00 	movl   $0x14,0x18(%esp)
    1097:	00 
    1098:	89 44 24 14          	mov    %eax,0x14(%esp)
    109c:	c7 44 24 10 01 00 00 	movl   $0x1,0x10(%esp)
    10a3:	00 
    10a4:	c7 44 24 0c 01 00 00 	movl   $0x1,0xc(%esp)
    10ab:	00 
    10ac:	8b 45 08             	mov    0x8(%ebp),%eax
    10af:	89 04 24             	mov    %eax,(%esp)
    10b2:	8b 45 0c             	mov    0xc(%ebp),%eax
    10b5:	89 44 24 04          	mov    %eax,0x4(%esp)
    10b9:	8b 45 10             	mov    0x10(%ebp),%eax
    10bc:	89 44 24 08          	mov    %eax,0x8(%esp)
    10c0:	e8 f4 12 00 00       	call   23b9 <fill_rect>
    puts_str(context, "PictureViewer", 0, WINDOW_WIDTH/2 - 53, 3);
    10c5:	c7 44 24 18 03 00 00 	movl   $0x3,0x18(%esp)
    10cc:	00 
    10cd:	c7 44 24 14 c5 00 00 	movl   $0xc5,0x14(%esp)
    10d4:	00 
    10d5:	c7 44 24 10 00 00 00 	movl   $0x0,0x10(%esp)
    10dc:	00 
    10dd:	c7 44 24 0c 6a aa 00 	movl   $0xaa6a,0xc(%esp)
    10e4:	00 
    10e5:	8b 45 08             	mov    0x8(%ebp),%eax
    10e8:	89 04 24             	mov    %eax,(%esp)
    10eb:	8b 45 0c             	mov    0xc(%ebp),%eax
    10ee:	89 44 24 04          	mov    %eax,0x4(%esp)
    10f2:	8b 45 10             	mov    0x10(%ebp),%eax
    10f5:	89 44 24 08          	mov    %eax,0x8(%esp)
    10f9:	e8 9a 18 00 00       	call   2998 <puts_str>

    draw_iconlist(context, wndRes, sizeof(wndRes) / sizeof(ICON));
    10fe:	c7 44 24 10 01 00 00 	movl   $0x1,0x10(%esp)
    1105:	00 
    1106:	c7 44 24 0c c0 e6 00 	movl   $0xe6c0,0xc(%esp)
    110d:	00 
    110e:	8b 45 08             	mov    0x8(%ebp),%eax
    1111:	89 04 24             	mov    %eax,(%esp)
    1114:	8b 45 0c             	mov    0xc(%ebp),%eax
    1117:	89 44 24 04          	mov    %eax,0x4(%esp)
    111b:	8b 45 10             	mov    0x10(%ebp),%eax
    111e:	89 44 24 08          	mov    %eax,0x8(%esp)
    1122:	e8 e2 1d 00 00       	call   2f09 <draw_iconlist>
    PICNODE rolling;
    loadBitmap(&rolling, "rolling.bmp");
    1127:	c7 44 24 04 78 aa 00 	movl   $0xaa78,0x4(%esp)
    112e:	00 
    112f:	8d 45 e4             	lea    -0x1c(%ebp),%eax
    1132:	89 04 24             	mov    %eax,(%esp)
    1135:	e8 4e 1e 00 00       	call   2f88 <loadBitmap>
    compressAnyPic(&rolling,16,16);
    113a:	c7 44 24 08 10 00 00 	movl   $0x10,0x8(%esp)
    1141:	00 
    1142:	c7 44 24 04 10 00 00 	movl   $0x10,0x4(%esp)
    1149:	00 
    114a:	8d 45 e4             	lea    -0x1c(%ebp),%eax
    114d:	89 04 24             	mov    %eax,(%esp)
    1150:	e8 98 f2 ff ff       	call   3ed <compressAnyPic>
    draw_picture(context, rolling, 40, 3);
    1155:	c7 44 24 1c 03 00 00 	movl   $0x3,0x1c(%esp)
    115c:	00 
    115d:	c7 44 24 18 28 00 00 	movl   $0x28,0x18(%esp)
    1164:	00 
    1165:	8b 45 e4             	mov    -0x1c(%ebp),%eax
    1168:	89 44 24 0c          	mov    %eax,0xc(%esp)
    116c:	8b 45 e8             	mov    -0x18(%ebp),%eax
    116f:	89 44 24 10          	mov    %eax,0x10(%esp)
    1173:	8b 45 ec             	mov    -0x14(%ebp),%eax
    1176:	89 44 24 14          	mov    %eax,0x14(%esp)
    117a:	8b 45 08             	mov    0x8(%ebp),%eax
    117d:	89 04 24             	mov    %eax,(%esp)
    1180:	8b 45 0c             	mov    0xc(%ebp),%eax
    1183:	89 44 24 04          	mov    %eax,0x4(%esp)
    1187:	8b 45 10             	mov    0x10(%ebp),%eax
    118a:	89 44 24 08          	mov    %eax,0x8(%esp)
    118e:	e8 c5 18 00 00       	call   2a58 <draw_picture>
    freepic(&rolling);
    1193:	8d 45 e4             	lea    -0x1c(%ebp),%eax
    1196:	89 04 24             	mov    %eax,(%esp)
    1199:	e8 96 23 00 00       	call   3534 <freepic>

    PICNODE next;
    loadBitmap(&next, "next.bmp");
    119e:	c7 44 24 04 84 aa 00 	movl   $0xaa84,0x4(%esp)
    11a5:	00 
    11a6:	8d 45 d8             	lea    -0x28(%ebp),%eax
    11a9:	89 04 24             	mov    %eax,(%esp)
    11ac:	e8 d7 1d 00 00       	call   2f88 <loadBitmap>
    compressAnyPic(&next,16,16);
    11b1:	c7 44 24 08 10 00 00 	movl   $0x10,0x8(%esp)
    11b8:	00 
    11b9:	c7 44 24 04 10 00 00 	movl   $0x10,0x4(%esp)
    11c0:	00 
    11c1:	8d 45 d8             	lea    -0x28(%ebp),%eax
    11c4:	89 04 24             	mov    %eax,(%esp)
    11c7:	e8 21 f2 ff ff       	call   3ed <compressAnyPic>
    draw_picture(context, next, 60, 3);
    11cc:	c7 44 24 1c 03 00 00 	movl   $0x3,0x1c(%esp)
    11d3:	00 
    11d4:	c7 44 24 18 3c 00 00 	movl   $0x3c,0x18(%esp)
    11db:	00 
    11dc:	8b 45 d8             	mov    -0x28(%ebp),%eax
    11df:	89 44 24 0c          	mov    %eax,0xc(%esp)
    11e3:	8b 45 dc             	mov    -0x24(%ebp),%eax
    11e6:	89 44 24 10          	mov    %eax,0x10(%esp)
    11ea:	8b 45 e0             	mov    -0x20(%ebp),%eax
    11ed:	89 44 24 14          	mov    %eax,0x14(%esp)
    11f1:	8b 45 08             	mov    0x8(%ebp),%eax
    11f4:	89 04 24             	mov    %eax,(%esp)
    11f7:	8b 45 0c             	mov    0xc(%ebp),%eax
    11fa:	89 44 24 04          	mov    %eax,0x4(%esp)
    11fe:	8b 45 10             	mov    0x10(%ebp),%eax
    1201:	89 44 24 08          	mov    %eax,0x8(%esp)
    1205:	e8 4e 18 00 00       	call   2a58 <draw_picture>
    freepic(&next);
    120a:	8d 45 d8             	lea    -0x28(%ebp),%eax
    120d:	89 04 24             	mov    %eax,(%esp)
    1210:	e8 1f 23 00 00       	call   3534 <freepic>
}
    1215:	c9                   	leave  
    1216:	c3                   	ret    

00001217 <updateWindowWithoutBlank>:

//Update Something
void updateWindowWithoutBlank(Context context)
{
    1217:	55                   	push   %ebp
    1218:	89 e5                	mov    %esp,%ebp
    121a:	83 ec 58             	sub    $0x58,%esp
	PICNODE picCha;
  	draw_line(context, 0, 0, context.width - 1, 0, BORDERLINE_COLOR);
    121d:	8b 45 0c             	mov    0xc(%ebp),%eax
    1220:	83 e8 01             	sub    $0x1,%eax
    1223:	c7 44 24 1c 00 00 00 	movl   $0x0,0x1c(%esp)
    122a:	00 
    122b:	c7 44 24 18 00 00 00 	movl   $0x0,0x18(%esp)
    1232:	00 
    1233:	89 44 24 14          	mov    %eax,0x14(%esp)
    1237:	c7 44 24 10 00 00 00 	movl   $0x0,0x10(%esp)
    123e:	00 
    123f:	c7 44 24 0c 00 00 00 	movl   $0x0,0xc(%esp)
    1246:	00 
    1247:	8b 45 08             	mov    0x8(%ebp),%eax
    124a:	89 04 24             	mov    %eax,(%esp)
    124d:	8b 45 0c             	mov    0xc(%ebp),%eax
    1250:	89 44 24 04          	mov    %eax,0x4(%esp)
    1254:	8b 45 10             	mov    0x10(%ebp),%eax
    1257:	89 44 24 08          	mov    %eax,0x8(%esp)
    125b:	e8 ce 18 00 00       	call   2b2e <draw_line>
  	draw_line(context, context.width - 1, 0, context.width - 1, context.height - 1, BORDERLINE_COLOR);
    1260:	8b 45 10             	mov    0x10(%ebp),%eax
    1263:	8d 48 ff             	lea    -0x1(%eax),%ecx
    1266:	8b 45 0c             	mov    0xc(%ebp),%eax
    1269:	8d 50 ff             	lea    -0x1(%eax),%edx
    126c:	8b 45 0c             	mov    0xc(%ebp),%eax
    126f:	83 e8 01             	sub    $0x1,%eax
    1272:	c7 44 24 1c 00 00 00 	movl   $0x0,0x1c(%esp)
    1279:	00 
    127a:	89 4c 24 18          	mov    %ecx,0x18(%esp)
    127e:	89 54 24 14          	mov    %edx,0x14(%esp)
    1282:	c7 44 24 10 00 00 00 	movl   $0x0,0x10(%esp)
    1289:	00 
    128a:	89 44 24 0c          	mov    %eax,0xc(%esp)
    128e:	8b 45 08             	mov    0x8(%ebp),%eax
    1291:	89 04 24             	mov    %eax,(%esp)
    1294:	8b 45 0c             	mov    0xc(%ebp),%eax
    1297:	89 44 24 04          	mov    %eax,0x4(%esp)
    129b:	8b 45 10             	mov    0x10(%ebp),%eax
    129e:	89 44 24 08          	mov    %eax,0x8(%esp)
    12a2:	e8 87 18 00 00       	call   2b2e <draw_line>
  	draw_line(context, context.width - 1, context.height - 1, 0, context.height - 1, BORDERLINE_COLOR);
    12a7:	8b 45 10             	mov    0x10(%ebp),%eax
    12aa:	8d 48 ff             	lea    -0x1(%eax),%ecx
    12ad:	8b 45 10             	mov    0x10(%ebp),%eax
    12b0:	8d 50 ff             	lea    -0x1(%eax),%edx
    12b3:	8b 45 0c             	mov    0xc(%ebp),%eax
    12b6:	83 e8 01             	sub    $0x1,%eax
    12b9:	c7 44 24 1c 00 00 00 	movl   $0x0,0x1c(%esp)
    12c0:	00 
    12c1:	89 4c 24 18          	mov    %ecx,0x18(%esp)
    12c5:	c7 44 24 14 00 00 00 	movl   $0x0,0x14(%esp)
    12cc:	00 
    12cd:	89 54 24 10          	mov    %edx,0x10(%esp)
    12d1:	89 44 24 0c          	mov    %eax,0xc(%esp)
    12d5:	8b 45 08             	mov    0x8(%ebp),%eax
    12d8:	89 04 24             	mov    %eax,(%esp)
    12db:	8b 45 0c             	mov    0xc(%ebp),%eax
    12de:	89 44 24 04          	mov    %eax,0x4(%esp)
    12e2:	8b 45 10             	mov    0x10(%ebp),%eax
    12e5:	89 44 24 08          	mov    %eax,0x8(%esp)
    12e9:	e8 40 18 00 00       	call   2b2e <draw_line>
  	draw_line(context, 0, context.height - 1, 0, 0, BORDERLINE_COLOR);
    12ee:	8b 45 10             	mov    0x10(%ebp),%eax
    12f1:	83 e8 01             	sub    $0x1,%eax
    12f4:	c7 44 24 1c 00 00 00 	movl   $0x0,0x1c(%esp)
    12fb:	00 
    12fc:	c7 44 24 18 00 00 00 	movl   $0x0,0x18(%esp)
    1303:	00 
    1304:	c7 44 24 14 00 00 00 	movl   $0x0,0x14(%esp)
    130b:	00 
    130c:	89 44 24 10          	mov    %eax,0x10(%esp)
    1310:	c7 44 24 0c 00 00 00 	movl   $0x0,0xc(%esp)
    1317:	00 
    1318:	8b 45 08             	mov    0x8(%ebp),%eax
    131b:	89 04 24             	mov    %eax,(%esp)
    131e:	8b 45 0c             	mov    0xc(%ebp),%eax
    1321:	89 44 24 04          	mov    %eax,0x4(%esp)
    1325:	8b 45 10             	mov    0x10(%ebp),%eax
    1328:	89 44 24 08          	mov    %eax,0x8(%esp)
    132c:	e8 fd 17 00 00       	call   2b2e <draw_line>
  	fill_rect(context, 1, 1, context.width - 2, BOTTOMBAR_HEIGHT, TOPBAR_COLOR);
    1331:	8b 45 0c             	mov    0xc(%ebp),%eax
    1334:	83 e8 02             	sub    $0x2,%eax
    1337:	c7 44 24 1c cb 5a 00 	movl   $0x5acb,0x1c(%esp)
    133e:	00 
    133f:	c7 44 24 18 14 00 00 	movl   $0x14,0x18(%esp)
    1346:	00 
    1347:	89 44 24 14          	mov    %eax,0x14(%esp)
    134b:	c7 44 24 10 01 00 00 	movl   $0x1,0x10(%esp)
    1352:	00 
    1353:	c7 44 24 0c 01 00 00 	movl   $0x1,0xc(%esp)
    135a:	00 
    135b:	8b 45 08             	mov    0x8(%ebp),%eax
    135e:	89 04 24             	mov    %eax,(%esp)
    1361:	8b 45 0c             	mov    0xc(%ebp),%eax
    1364:	89 44 24 04          	mov    %eax,0x4(%esp)
    1368:	8b 45 10             	mov    0x10(%ebp),%eax
    136b:	89 44 24 08          	mov    %eax,0x8(%esp)
    136f:	e8 45 10 00 00       	call   23b9 <fill_rect>
  	loadBitmap(&picCha, "close.bmp");
    1374:	c7 44 24 04 8d aa 00 	movl   $0xaa8d,0x4(%esp)
    137b:	00 
    137c:	8d 45 ec             	lea    -0x14(%ebp),%eax
    137f:	89 04 24             	mov    %eax,(%esp)
    1382:	e8 01 1c 00 00       	call   2f88 <loadBitmap>
  	draw_picture(context, picCha, 3, 3);
    1387:	c7 44 24 1c 03 00 00 	movl   $0x3,0x1c(%esp)
    138e:	00 
    138f:	c7 44 24 18 03 00 00 	movl   $0x3,0x18(%esp)
    1396:	00 
    1397:	8b 45 ec             	mov    -0x14(%ebp),%eax
    139a:	89 44 24 0c          	mov    %eax,0xc(%esp)
    139e:	8b 45 f0             	mov    -0x10(%ebp),%eax
    13a1:	89 44 24 10          	mov    %eax,0x10(%esp)
    13a5:	8b 45 f4             	mov    -0xc(%ebp),%eax
    13a8:	89 44 24 14          	mov    %eax,0x14(%esp)
    13ac:	8b 45 08             	mov    0x8(%ebp),%eax
    13af:	89 04 24             	mov    %eax,(%esp)
    13b2:	8b 45 0c             	mov    0xc(%ebp),%eax
    13b5:	89 44 24 04          	mov    %eax,0x4(%esp)
    13b9:	8b 45 10             	mov    0x10(%ebp),%eax
    13bc:	89 44 24 08          	mov    %eax,0x8(%esp)
    13c0:	e8 93 16 00 00       	call   2a58 <draw_picture>
  	puts_str(context, "PictureViewer", 0, WINDOW_WIDTH/2 - 53, 3);
    13c5:	c7 44 24 18 03 00 00 	movl   $0x3,0x18(%esp)
    13cc:	00 
    13cd:	c7 44 24 14 c5 00 00 	movl   $0xc5,0x14(%esp)
    13d4:	00 
    13d5:	c7 44 24 10 00 00 00 	movl   $0x0,0x10(%esp)
    13dc:	00 
    13dd:	c7 44 24 0c 6a aa 00 	movl   $0xaa6a,0xc(%esp)
    13e4:	00 
    13e5:	8b 45 08             	mov    0x8(%ebp),%eax
    13e8:	89 04 24             	mov    %eax,(%esp)
    13eb:	8b 45 0c             	mov    0xc(%ebp),%eax
    13ee:	89 44 24 04          	mov    %eax,0x4(%esp)
    13f2:	8b 45 10             	mov    0x10(%ebp),%eax
    13f5:	89 44 24 08          	mov    %eax,0x8(%esp)
    13f9:	e8 9a 15 00 00       	call   2998 <puts_str>
  	freepic(&picCha);
    13fe:	8d 45 ec             	lea    -0x14(%ebp),%eax
    1401:	89 04 24             	mov    %eax,(%esp)
    1404:	e8 2b 21 00 00       	call   3534 <freepic>
	PICNODE rolling;
    	loadBitmap(&rolling, "rolling.bmp");
    1409:	c7 44 24 04 78 aa 00 	movl   $0xaa78,0x4(%esp)
    1410:	00 
    1411:	8d 45 e0             	lea    -0x20(%ebp),%eax
    1414:	89 04 24             	mov    %eax,(%esp)
    1417:	e8 6c 1b 00 00       	call   2f88 <loadBitmap>
    	compressAnyPic(&rolling,16,16);
    141c:	c7 44 24 08 10 00 00 	movl   $0x10,0x8(%esp)
    1423:	00 
    1424:	c7 44 24 04 10 00 00 	movl   $0x10,0x4(%esp)
    142b:	00 
    142c:	8d 45 e0             	lea    -0x20(%ebp),%eax
    142f:	89 04 24             	mov    %eax,(%esp)
    1432:	e8 b6 ef ff ff       	call   3ed <compressAnyPic>
    	draw_picture(context, rolling, 40, 3);
    1437:	c7 44 24 1c 03 00 00 	movl   $0x3,0x1c(%esp)
    143e:	00 
    143f:	c7 44 24 18 28 00 00 	movl   $0x28,0x18(%esp)
    1446:	00 
    1447:	8b 45 e0             	mov    -0x20(%ebp),%eax
    144a:	89 44 24 0c          	mov    %eax,0xc(%esp)
    144e:	8b 45 e4             	mov    -0x1c(%ebp),%eax
    1451:	89 44 24 10          	mov    %eax,0x10(%esp)
    1455:	8b 45 e8             	mov    -0x18(%ebp),%eax
    1458:	89 44 24 14          	mov    %eax,0x14(%esp)
    145c:	8b 45 08             	mov    0x8(%ebp),%eax
    145f:	89 04 24             	mov    %eax,(%esp)
    1462:	8b 45 0c             	mov    0xc(%ebp),%eax
    1465:	89 44 24 04          	mov    %eax,0x4(%esp)
    1469:	8b 45 10             	mov    0x10(%ebp),%eax
    146c:	89 44 24 08          	mov    %eax,0x8(%esp)
    1470:	e8 e3 15 00 00       	call   2a58 <draw_picture>
    	freepic(&rolling);
    1475:	8d 45 e0             	lea    -0x20(%ebp),%eax
    1478:	89 04 24             	mov    %eax,(%esp)
    147b:	e8 b4 20 00 00       	call   3534 <freepic>

	PICNODE next;
        loadBitmap(&next, "next.bmp");
    1480:	c7 44 24 04 84 aa 00 	movl   $0xaa84,0x4(%esp)
    1487:	00 
    1488:	8d 45 d4             	lea    -0x2c(%ebp),%eax
    148b:	89 04 24             	mov    %eax,(%esp)
    148e:	e8 f5 1a 00 00       	call   2f88 <loadBitmap>
        compressAnyPic(&next,16,16);
    1493:	c7 44 24 08 10 00 00 	movl   $0x10,0x8(%esp)
    149a:	00 
    149b:	c7 44 24 04 10 00 00 	movl   $0x10,0x4(%esp)
    14a2:	00 
    14a3:	8d 45 d4             	lea    -0x2c(%ebp),%eax
    14a6:	89 04 24             	mov    %eax,(%esp)
    14a9:	e8 3f ef ff ff       	call   3ed <compressAnyPic>
        draw_picture(context, next, 60, 3);
    14ae:	c7 44 24 1c 03 00 00 	movl   $0x3,0x1c(%esp)
    14b5:	00 
    14b6:	c7 44 24 18 3c 00 00 	movl   $0x3c,0x18(%esp)
    14bd:	00 
    14be:	8b 45 d4             	mov    -0x2c(%ebp),%eax
    14c1:	89 44 24 0c          	mov    %eax,0xc(%esp)
    14c5:	8b 45 d8             	mov    -0x28(%ebp),%eax
    14c8:	89 44 24 10          	mov    %eax,0x10(%esp)
    14cc:	8b 45 dc             	mov    -0x24(%ebp),%eax
    14cf:	89 44 24 14          	mov    %eax,0x14(%esp)
    14d3:	8b 45 08             	mov    0x8(%ebp),%eax
    14d6:	89 04 24             	mov    %eax,(%esp)
    14d9:	8b 45 0c             	mov    0xc(%ebp),%eax
    14dc:	89 44 24 04          	mov    %eax,0x4(%esp)
    14e0:	8b 45 10             	mov    0x10(%ebp),%eax
    14e3:	89 44 24 08          	mov    %eax,0x8(%esp)
    14e7:	e8 6c 15 00 00       	call   2a58 <draw_picture>
        freepic(&next);
    14ec:	8d 45 d4             	lea    -0x2c(%ebp),%eax
    14ef:	89 04 24             	mov    %eax,(%esp)
    14f2:	e8 3d 20 00 00       	call   3534 <freepic>
	
}
    14f7:	c9                   	leave  
    14f8:	c3                   	ret    

000014f9 <drawPicViewerContent>:

void drawPicViewerContent(Context context, char* fileName) {
    14f9:	55                   	push   %ebp
    14fa:	89 e5                	mov    %esp,%ebp
    14fc:	83 ec 38             	sub    $0x38,%esp
    int c_width, c_height;
    int pic_width, pic_height;

    c_width = context.width;
    14ff:	8b 45 0c             	mov    0xc(%ebp),%eax
    1502:	89 45 f4             	mov    %eax,-0xc(%ebp)
    c_height = context.height;
    1505:	8b 45 10             	mov    0x10(%ebp),%eax
    1508:	89 45 f0             	mov    %eax,-0x10(%ebp)
    pic_width = pic.width;
    150b:	a1 04 1a 01 00       	mov    0x11a04,%eax
    1510:	89 45 ec             	mov    %eax,-0x14(%ebp)
    pic_height = pic.height;
    1513:	a1 08 1a 01 00       	mov    0x11a08,%eax
    1518:	89 45 e8             	mov    %eax,-0x18(%ebp)

    printf(0, "drawPicViewerContent: pic_width: %d, pic_height: %d\n", pic_width, pic_height);
    151b:	8b 45 e8             	mov    -0x18(%ebp),%eax
    151e:	89 44 24 0c          	mov    %eax,0xc(%esp)
    1522:	8b 45 ec             	mov    -0x14(%ebp),%eax
    1525:	89 44 24 08          	mov    %eax,0x8(%esp)
    1529:	c7 44 24 04 98 aa 00 	movl   $0xaa98,0x4(%esp)
    1530:	00 
    1531:	c7 04 24 00 00 00 00 	movl   $0x0,(%esp)
    1538:	e8 05 2e 00 00       	call   4342 <printf>
    draw_picture(context, pic, ((c_width-pic_width) >> 1) + X_shift, TOPBAR_HEIGHT + ((c_height-pic_height) >> 1) + Y_shift);
    153d:	8b 45 e8             	mov    -0x18(%ebp),%eax
    1540:	8b 55 f0             	mov    -0x10(%ebp),%edx
    1543:	29 c2                	sub    %eax,%edx
    1545:	89 d0                	mov    %edx,%eax
    1547:	d1 f8                	sar    %eax
    1549:	8d 50 14             	lea    0x14(%eax),%edx
    154c:	a1 10 ec 00 00       	mov    0xec10,%eax
    1551:	01 c2                	add    %eax,%edx
    1553:	8b 45 ec             	mov    -0x14(%ebp),%eax
    1556:	8b 4d f4             	mov    -0xc(%ebp),%ecx
    1559:	29 c1                	sub    %eax,%ecx
    155b:	89 c8                	mov    %ecx,%eax
    155d:	d1 f8                	sar    %eax
    155f:	89 c1                	mov    %eax,%ecx
    1561:	a1 0c ec 00 00       	mov    0xec0c,%eax
    1566:	01 c8                	add    %ecx,%eax
    1568:	89 54 24 1c          	mov    %edx,0x1c(%esp)
    156c:	89 44 24 18          	mov    %eax,0x18(%esp)
    1570:	a1 00 1a 01 00       	mov    0x11a00,%eax
    1575:	89 44 24 0c          	mov    %eax,0xc(%esp)
    1579:	a1 04 1a 01 00       	mov    0x11a04,%eax
    157e:	89 44 24 10          	mov    %eax,0x10(%esp)
    1582:	a1 08 1a 01 00       	mov    0x11a08,%eax
    1587:	89 44 24 14          	mov    %eax,0x14(%esp)
    158b:	8b 45 08             	mov    0x8(%ebp),%eax
    158e:	89 04 24             	mov    %eax,(%esp)
    1591:	8b 45 0c             	mov    0xc(%ebp),%eax
    1594:	89 44 24 04          	mov    %eax,0x4(%esp)
    1598:	8b 45 10             	mov    0x10(%ebp),%eax
    159b:	89 44 24 08          	mov    %eax,0x8(%esp)
    159f:	e8 b4 14 00 00       	call   2a58 <draw_picture>
    startXsave = ((c_width-pic_width) >> 1) + X_shift;
    15a4:	8b 45 ec             	mov    -0x14(%ebp),%eax
    15a7:	8b 55 f4             	mov    -0xc(%ebp),%edx
    15aa:	29 c2                	sub    %eax,%edx
    15ac:	89 d0                	mov    %edx,%eax
    15ae:	d1 f8                	sar    %eax
    15b0:	89 c2                	mov    %eax,%edx
    15b2:	a1 0c ec 00 00       	mov    0xec0c,%eax
    15b7:	01 d0                	add    %edx,%eax
    15b9:	a3 04 ec 00 00       	mov    %eax,0xec04
    startYsave = TOPBAR_HEIGHT + ((c_height-pic_height) >> 1) + Y_shift;
    15be:	8b 45 e8             	mov    -0x18(%ebp),%eax
    15c1:	8b 55 f0             	mov    -0x10(%ebp),%edx
    15c4:	29 c2                	sub    %eax,%edx
    15c6:	89 d0                	mov    %edx,%eax
    15c8:	d1 f8                	sar    %eax
    15ca:	8d 50 14             	lea    0x14(%eax),%edx
    15cd:	a1 10 ec 00 00       	mov    0xec10,%eax
    15d2:	01 d0                	add    %edx,%eax
    15d4:	a3 08 ec 00 00       	mov    %eax,0xec08
}
    15d9:	c9                   	leave  
    15da:	c3                   	ret    

000015db <drawPicViewerContentForProper>:

void drawPicViewerContentForProper(Context context, char* fileName) {
    15db:	55                   	push   %ebp
    15dc:	89 e5                	mov    %esp,%ebp
    15de:	83 ec 28             	sub    $0x28,%esp
    
    draw_picture(context, pic, startXsave, startYsave);
    15e1:	8b 15 08 ec 00 00    	mov    0xec08,%edx
    15e7:	a1 04 ec 00 00       	mov    0xec04,%eax
    15ec:	89 54 24 1c          	mov    %edx,0x1c(%esp)
    15f0:	89 44 24 18          	mov    %eax,0x18(%esp)
    15f4:	a1 00 1a 01 00       	mov    0x11a00,%eax
    15f9:	89 44 24 0c          	mov    %eax,0xc(%esp)
    15fd:	a1 04 1a 01 00       	mov    0x11a04,%eax
    1602:	89 44 24 10          	mov    %eax,0x10(%esp)
    1606:	a1 08 1a 01 00       	mov    0x11a08,%eax
    160b:	89 44 24 14          	mov    %eax,0x14(%esp)
    160f:	8b 45 08             	mov    0x8(%ebp),%eax
    1612:	89 04 24             	mov    %eax,(%esp)
    1615:	8b 45 0c             	mov    0xc(%ebp),%eax
    1618:	89 44 24 04          	mov    %eax,0x4(%esp)
    161c:	8b 45 10             	mov    0x10(%ebp),%eax
    161f:	89 44 24 08          	mov    %eax,0x8(%esp)
    1623:	e8 30 14 00 00       	call   2a58 <draw_picture>
}
    1628:	c9                   	leave  
    1629:	c3                   	ret    

0000162a <h_closeWnd>:

void h_closeWnd(Point p) {
    162a:	55                   	push   %ebp
    162b:	89 e5                	mov    %esp,%ebp
    isRun = 0;
    162d:	c7 05 f8 e6 00 00 00 	movl   $0x0,0xe6f8
    1634:	00 00 00 
}
    1637:	5d                   	pop    %ebp
    1638:	c3                   	ret    

00001639 <addWndEvent>:

void addWndEvent(ClickableManager *cm) {
    1639:	55                   	push   %ebp
    163a:	89 e5                	mov    %esp,%ebp
    163c:	57                   	push   %edi
    163d:	56                   	push   %esi
    163e:	53                   	push   %ebx
    163f:	83 ec 4c             	sub    $0x4c,%esp
    int i;
	int n = sizeof(wndEvents) / sizeof(Handler);
    1642:	c7 45 e0 01 00 00 00 	movl   $0x1,-0x20(%ebp)

	for (i = 0; i < n; i++) {
    1649:	c7 45 e4 00 00 00 00 	movl   $0x0,-0x1c(%ebp)
    1650:	e9 96 00 00 00       	jmp    16eb <addWndEvent+0xb2>
		createClickable(cm,
    1655:	8b 45 e4             	mov    -0x1c(%ebp),%eax
    1658:	8b 1c 85 f4 e6 00 00 	mov    0xe6f4(,%eax,4),%ebx
    165f:	8b 45 e4             	mov    -0x1c(%ebp),%eax
    1662:	6b c0 34             	imul   $0x34,%eax,%eax
    1665:	05 e0 e6 00 00       	add    $0xe6e0,%eax
    166a:	8b 78 10             	mov    0x10(%eax),%edi
    166d:	8b 45 e4             	mov    -0x1c(%ebp),%eax
    1670:	6b c0 34             	imul   $0x34,%eax,%eax
    1673:	05 e0 e6 00 00       	add    $0xe6e0,%eax
    1678:	8b 70 0c             	mov    0xc(%eax),%esi
    167b:	8b 45 e4             	mov    -0x1c(%ebp),%eax
    167e:	6b c0 34             	imul   $0x34,%eax,%eax
    1681:	05 e0 e6 00 00       	add    $0xe6e0,%eax
    1686:	8b 48 04             	mov    0x4(%eax),%ecx
    1689:	8b 45 e4             	mov    -0x1c(%ebp),%eax
    168c:	6b c0 34             	imul   $0x34,%eax,%eax
    168f:	05 e0 e6 00 00       	add    $0xe6e0,%eax
    1694:	8b 10                	mov    (%eax),%edx
    1696:	8d 45 d0             	lea    -0x30(%ebp),%eax
    1699:	89 7c 24 10          	mov    %edi,0x10(%esp)
    169d:	89 74 24 0c          	mov    %esi,0xc(%esp)
    16a1:	89 4c 24 08          	mov    %ecx,0x8(%esp)
    16a5:	89 54 24 04          	mov    %edx,0x4(%esp)
    16a9:	89 04 24             	mov    %eax,(%esp)
    16ac:	e8 52 21 00 00       	call   3803 <initRect>
    16b1:	83 ec 04             	sub    $0x4,%esp
    16b4:	89 5c 24 18          	mov    %ebx,0x18(%esp)
    16b8:	c7 44 24 14 02 00 00 	movl   $0x2,0x14(%esp)
    16bf:	00 
    16c0:	8b 45 d0             	mov    -0x30(%ebp),%eax
    16c3:	89 44 24 04          	mov    %eax,0x4(%esp)
    16c7:	8b 45 d4             	mov    -0x2c(%ebp),%eax
    16ca:	89 44 24 08          	mov    %eax,0x8(%esp)
    16ce:	8b 45 d8             	mov    -0x28(%ebp),%eax
    16d1:	89 44 24 0c          	mov    %eax,0xc(%esp)
    16d5:	8b 45 dc             	mov    -0x24(%ebp),%eax
    16d8:	89 44 24 10          	mov    %eax,0x10(%esp)
    16dc:	8b 45 08             	mov    0x8(%ebp),%eax
    16df:	89 04 24             	mov    %eax,(%esp)
    16e2:	e8 08 22 00 00       	call   38ef <createClickable>

void addWndEvent(ClickableManager *cm) {
    int i;
	int n = sizeof(wndEvents) / sizeof(Handler);

	for (i = 0; i < n; i++) {
    16e7:	83 45 e4 01          	addl   $0x1,-0x1c(%ebp)
    16eb:	8b 45 e4             	mov    -0x1c(%ebp),%eax
    16ee:	3b 45 e0             	cmp    -0x20(%ebp),%eax
    16f1:	0f 8c 5e ff ff ff    	jl     1655 <addWndEvent+0x1c>
		createClickable(cm,
				initRect(wndRes[i].position_x, wndRes[i].position_y,
						wndRes[i].pic.width, wndRes[i].pic.height), MSG_LPRESS,
				wndEvents[i]);
	}
}
    16f7:	8d 65 f4             	lea    -0xc(%ebp),%esp
    16fa:	5b                   	pop    %ebx
    16fb:	5e                   	pop    %esi
    16fc:	5f                   	pop    %edi
    16fd:	5d                   	pop    %ebp
    16fe:	c3                   	ret    

000016ff <propertyShow>:


void propertyShow(Context context, int startX, int startY)
{
    16ff:	55                   	push   %ebp
    1700:	89 e5                	mov    %esp,%ebp
    1702:	53                   	push   %ebx
    1703:	83 ec 64             	sub    $0x64,%esp
	printf(0, "Right Clicked: p.x:%d, p.y:%d\n",startX,startY);
    1706:	8b 45 18             	mov    0x18(%ebp),%eax
    1709:	89 44 24 0c          	mov    %eax,0xc(%esp)
    170d:	8b 45 14             	mov    0x14(%ebp),%eax
    1710:	89 44 24 08          	mov    %eax,0x8(%esp)
    1714:	c7 44 24 04 d0 aa 00 	movl   $0xaad0,0x4(%esp)
    171b:	00 
    171c:	c7 04 24 00 00 00 00 	movl   $0x0,(%esp)
    1723:	e8 1a 2c 00 00       	call   4342 <printf>
	printf(0, "Right Clicked: pic.width:%d, pic.height:%d\n",pic.width,pic.height);
    1728:	8b 15 08 1a 01 00    	mov    0x11a08,%edx
    172e:	a1 04 1a 01 00       	mov    0x11a04,%eax
    1733:	89 54 24 0c          	mov    %edx,0xc(%esp)
    1737:	89 44 24 08          	mov    %eax,0x8(%esp)
    173b:	c7 44 24 04 f0 aa 00 	movl   $0xaaf0,0x4(%esp)
    1742:	00 
    1743:	c7 04 24 00 00 00 00 	movl   $0x0,(%esp)
    174a:	e8 f3 2b 00 00       	call   4342 <printf>
	//int lengthX = 100;
	//int lengthY = 200;
	int width = pic.width;
    174f:	a1 04 1a 01 00       	mov    0x11a04,%eax
    1754:	89 45 f4             	mov    %eax,-0xc(%ebp)
	int height = pic.height;
    1757:	a1 08 1a 01 00       	mov    0x11a08,%eax
    175c:	89 45 f0             	mov    %eax,-0x10(%ebp)
	
	char*strw = (char*)malloc(10*sizeof(char));
    175f:	c7 04 24 0a 00 00 00 	movl   $0xa,(%esp)
    1766:	e8 c3 2e 00 00       	call   462e <malloc>
    176b:	89 45 d4             	mov    %eax,-0x2c(%ebp)
	char*strh = (char*)malloc(10*sizeof(char));
    176e:	c7 04 24 0a 00 00 00 	movl   $0xa,(%esp)
    1775:	e8 b4 2e 00 00       	call   462e <malloc>
    177a:	89 45 d0             	mov    %eax,-0x30(%ebp)
	int i = 0;
    177d:	c7 45 ec 00 00 00 00 	movl   $0x0,-0x14(%ebp)
	int lengthwt; 
	while(width>0)
    1784:	eb 52                	jmp    17d8 <propertyShow+0xd9>
	{
		strw[i] = width%10 + '0';
    1786:	8b 55 ec             	mov    -0x14(%ebp),%edx
    1789:	8b 45 d4             	mov    -0x2c(%ebp),%eax
    178c:	8d 1c 02             	lea    (%edx,%eax,1),%ebx
    178f:	8b 4d f4             	mov    -0xc(%ebp),%ecx
    1792:	ba 67 66 66 66       	mov    $0x66666667,%edx
    1797:	89 c8                	mov    %ecx,%eax
    1799:	f7 ea                	imul   %edx
    179b:	c1 fa 02             	sar    $0x2,%edx
    179e:	89 c8                	mov    %ecx,%eax
    17a0:	c1 f8 1f             	sar    $0x1f,%eax
    17a3:	29 c2                	sub    %eax,%edx
    17a5:	89 d0                	mov    %edx,%eax
    17a7:	c1 e0 02             	shl    $0x2,%eax
    17aa:	01 d0                	add    %edx,%eax
    17ac:	01 c0                	add    %eax,%eax
    17ae:	29 c1                	sub    %eax,%ecx
    17b0:	89 ca                	mov    %ecx,%edx
    17b2:	89 d0                	mov    %edx,%eax
    17b4:	83 c0 30             	add    $0x30,%eax
    17b7:	88 03                	mov    %al,(%ebx)
		width/=10;
    17b9:	8b 4d f4             	mov    -0xc(%ebp),%ecx
    17bc:	ba 67 66 66 66       	mov    $0x66666667,%edx
    17c1:	89 c8                	mov    %ecx,%eax
    17c3:	f7 ea                	imul   %edx
    17c5:	c1 fa 02             	sar    $0x2,%edx
    17c8:	89 c8                	mov    %ecx,%eax
    17ca:	c1 f8 1f             	sar    $0x1f,%eax
    17cd:	29 c2                	sub    %eax,%edx
    17cf:	89 d0                	mov    %edx,%eax
    17d1:	89 45 f4             	mov    %eax,-0xc(%ebp)
		i++;	
    17d4:	83 45 ec 01          	addl   $0x1,-0x14(%ebp)
	
	char*strw = (char*)malloc(10*sizeof(char));
	char*strh = (char*)malloc(10*sizeof(char));
	int i = 0;
	int lengthwt; 
	while(width>0)
    17d8:	83 7d f4 00          	cmpl   $0x0,-0xc(%ebp)
    17dc:	7f a8                	jg     1786 <propertyShow+0x87>
		strw[i] = width%10 + '0';
		width/=10;
		i++;	
	}
	
	lengthwt = i;
    17de:	8b 45 ec             	mov    -0x14(%ebp),%eax
    17e1:	89 45 cc             	mov    %eax,-0x34(%ebp)
	for(;i<=10;i++)
    17e4:	eb 0f                	jmp    17f5 <propertyShow+0xf6>
	{
		strw[i] = '\0';
    17e6:	8b 55 ec             	mov    -0x14(%ebp),%edx
    17e9:	8b 45 d4             	mov    -0x2c(%ebp),%eax
    17ec:	01 d0                	add    %edx,%eax
    17ee:	c6 00 00             	movb   $0x0,(%eax)
		width/=10;
		i++;	
	}
	
	lengthwt = i;
	for(;i<=10;i++)
    17f1:	83 45 ec 01          	addl   $0x1,-0x14(%ebp)
    17f5:	83 7d ec 0a          	cmpl   $0xa,-0x14(%ebp)
    17f9:	7e eb                	jle    17e6 <propertyShow+0xe7>
	{
		strw[i] = '\0';
	}
	char* strwt = (char*)malloc((lengthwt+1)*sizeof(char));
    17fb:	8b 45 cc             	mov    -0x34(%ebp),%eax
    17fe:	83 c0 01             	add    $0x1,%eax
    1801:	89 04 24             	mov    %eax,(%esp)
    1804:	e8 25 2e 00 00       	call   462e <malloc>
    1809:	89 45 c8             	mov    %eax,-0x38(%ebp)
	//printf(0,"%d",lengthwt);
	int k0 = 0;
    180c:	c7 45 e8 00 00 00 00 	movl   $0x0,-0x18(%ebp)
	int k = lengthwt - 1;
    1813:	8b 45 cc             	mov    -0x34(%ebp),%eax
    1816:	83 e8 01             	sub    $0x1,%eax
    1819:	89 45 e4             	mov    %eax,-0x1c(%ebp)
	for(;k >= 0;k--)
    181c:	eb 30                	jmp    184e <propertyShow+0x14f>
	{
		if(strw[k0] != '\0')strwt[k] = strw[k0];
    181e:	8b 55 e8             	mov    -0x18(%ebp),%edx
    1821:	8b 45 d4             	mov    -0x2c(%ebp),%eax
    1824:	01 d0                	add    %edx,%eax
    1826:	0f b6 00             	movzbl (%eax),%eax
    1829:	84 c0                	test   %al,%al
    182b:	74 1f                	je     184c <propertyShow+0x14d>
    182d:	8b 55 e4             	mov    -0x1c(%ebp),%edx
    1830:	8b 45 c8             	mov    -0x38(%ebp),%eax
    1833:	01 c2                	add    %eax,%edx
    1835:	8b 4d e8             	mov    -0x18(%ebp),%ecx
    1838:	8b 45 d4             	mov    -0x2c(%ebp),%eax
    183b:	01 c8                	add    %ecx,%eax
    183d:	0f b6 00             	movzbl (%eax),%eax
    1840:	88 02                	mov    %al,(%edx)
		else break;
		k0++;
    1842:	83 45 e8 01          	addl   $0x1,-0x18(%ebp)
	}
	char* strwt = (char*)malloc((lengthwt+1)*sizeof(char));
	//printf(0,"%d",lengthwt);
	int k0 = 0;
	int k = lengthwt - 1;
	for(;k >= 0;k--)
    1846:	83 6d e4 01          	subl   $0x1,-0x1c(%ebp)
    184a:	eb 02                	jmp    184e <propertyShow+0x14f>
	{
		if(strw[k0] != '\0')strwt[k] = strw[k0];
		else break;
    184c:	eb 06                	jmp    1854 <propertyShow+0x155>
	}
	char* strwt = (char*)malloc((lengthwt+1)*sizeof(char));
	//printf(0,"%d",lengthwt);
	int k0 = 0;
	int k = lengthwt - 1;
	for(;k >= 0;k--)
    184e:	83 7d e4 00          	cmpl   $0x0,-0x1c(%ebp)
    1852:	79 ca                	jns    181e <propertyShow+0x11f>
		if(strw[k0] != '\0')strwt[k] = strw[k0];
		else break;
		k0++;
		
	}
	strwt[lengthwt] = '\0';
    1854:	8b 55 cc             	mov    -0x34(%ebp),%edx
    1857:	8b 45 c8             	mov    -0x38(%ebp),%eax
    185a:	01 d0                	add    %edx,%eax
    185c:	c6 00 00             	movb   $0x0,(%eax)
	free(strw);
    185f:	8b 45 d4             	mov    -0x2c(%ebp),%eax
    1862:	89 04 24             	mov    %eax,(%esp)
    1865:	e8 8b 2c 00 00       	call   44f5 <free>
	
	printf(0,"In itoa w:");
    186a:	c7 44 24 04 1c ab 00 	movl   $0xab1c,0x4(%esp)
    1871:	00 
    1872:	c7 04 24 00 00 00 00 	movl   $0x0,(%esp)
    1879:	e8 c4 2a 00 00       	call   4342 <printf>
	printf(0,strwt);
    187e:	8b 45 c8             	mov    -0x38(%ebp),%eax
    1881:	89 44 24 04          	mov    %eax,0x4(%esp)
    1885:	c7 04 24 00 00 00 00 	movl   $0x0,(%esp)
    188c:	e8 b1 2a 00 00       	call   4342 <printf>
	printf(0,"\n");
    1891:	c7 44 24 04 27 ab 00 	movl   $0xab27,0x4(%esp)
    1898:	00 
    1899:	c7 04 24 00 00 00 00 	movl   $0x0,(%esp)
    18a0:	e8 9d 2a 00 00       	call   4342 <printf>

	int j = 0;
    18a5:	c7 45 e0 00 00 00 00 	movl   $0x0,-0x20(%ebp)
	int lengthht; 
	while(height>0)
    18ac:	eb 52                	jmp    1900 <propertyShow+0x201>
	{
		strh[j] = height%10 + '0';
    18ae:	8b 55 e0             	mov    -0x20(%ebp),%edx
    18b1:	8b 45 d0             	mov    -0x30(%ebp),%eax
    18b4:	8d 1c 02             	lea    (%edx,%eax,1),%ebx
    18b7:	8b 4d f0             	mov    -0x10(%ebp),%ecx
    18ba:	ba 67 66 66 66       	mov    $0x66666667,%edx
    18bf:	89 c8                	mov    %ecx,%eax
    18c1:	f7 ea                	imul   %edx
    18c3:	c1 fa 02             	sar    $0x2,%edx
    18c6:	89 c8                	mov    %ecx,%eax
    18c8:	c1 f8 1f             	sar    $0x1f,%eax
    18cb:	29 c2                	sub    %eax,%edx
    18cd:	89 d0                	mov    %edx,%eax
    18cf:	c1 e0 02             	shl    $0x2,%eax
    18d2:	01 d0                	add    %edx,%eax
    18d4:	01 c0                	add    %eax,%eax
    18d6:	29 c1                	sub    %eax,%ecx
    18d8:	89 ca                	mov    %ecx,%edx
    18da:	89 d0                	mov    %edx,%eax
    18dc:	83 c0 30             	add    $0x30,%eax
    18df:	88 03                	mov    %al,(%ebx)
		height/=10;
    18e1:	8b 4d f0             	mov    -0x10(%ebp),%ecx
    18e4:	ba 67 66 66 66       	mov    $0x66666667,%edx
    18e9:	89 c8                	mov    %ecx,%eax
    18eb:	f7 ea                	imul   %edx
    18ed:	c1 fa 02             	sar    $0x2,%edx
    18f0:	89 c8                	mov    %ecx,%eax
    18f2:	c1 f8 1f             	sar    $0x1f,%eax
    18f5:	29 c2                	sub    %eax,%edx
    18f7:	89 d0                	mov    %edx,%eax
    18f9:	89 45 f0             	mov    %eax,-0x10(%ebp)
		j++;	
    18fc:	83 45 e0 01          	addl   $0x1,-0x20(%ebp)
	printf(0,strwt);
	printf(0,"\n");

	int j = 0;
	int lengthht; 
	while(height>0)
    1900:	83 7d f0 00          	cmpl   $0x0,-0x10(%ebp)
    1904:	7f a8                	jg     18ae <propertyShow+0x1af>
		strh[j] = height%10 + '0';
		height/=10;
		j++;	
	}
	
	lengthht = j;
    1906:	8b 45 e0             	mov    -0x20(%ebp),%eax
    1909:	89 45 c4             	mov    %eax,-0x3c(%ebp)
	for(;j<=10;j++)
    190c:	eb 0f                	jmp    191d <propertyShow+0x21e>
	{
		strh[j] = '\0';
    190e:	8b 55 e0             	mov    -0x20(%ebp),%edx
    1911:	8b 45 d0             	mov    -0x30(%ebp),%eax
    1914:	01 d0                	add    %edx,%eax
    1916:	c6 00 00             	movb   $0x0,(%eax)
		height/=10;
		j++;	
	}
	
	lengthht = j;
	for(;j<=10;j++)
    1919:	83 45 e0 01          	addl   $0x1,-0x20(%ebp)
    191d:	83 7d e0 0a          	cmpl   $0xa,-0x20(%ebp)
    1921:	7e eb                	jle    190e <propertyShow+0x20f>
	{
		strh[j] = '\0';
	}
	char* strht = (char*)malloc((lengthht+1)*sizeof(char));
    1923:	8b 45 c4             	mov    -0x3c(%ebp),%eax
    1926:	83 c0 01             	add    $0x1,%eax
    1929:	89 04 24             	mov    %eax,(%esp)
    192c:	e8 fd 2c 00 00       	call   462e <malloc>
    1931:	89 45 c0             	mov    %eax,-0x40(%ebp)
	//printf(0,"%d",lengthht);
	int t0 = 0;
    1934:	c7 45 dc 00 00 00 00 	movl   $0x0,-0x24(%ebp)
	int t = lengthht - 1;
    193b:	8b 45 c4             	mov    -0x3c(%ebp),%eax
    193e:	83 e8 01             	sub    $0x1,%eax
    1941:	89 45 d8             	mov    %eax,-0x28(%ebp)
	for(;t >= 0;t--)
    1944:	eb 30                	jmp    1976 <propertyShow+0x277>
	{
		if(strh[t0] != '\0')strht[t] = strh[t0];
    1946:	8b 55 dc             	mov    -0x24(%ebp),%edx
    1949:	8b 45 d0             	mov    -0x30(%ebp),%eax
    194c:	01 d0                	add    %edx,%eax
    194e:	0f b6 00             	movzbl (%eax),%eax
    1951:	84 c0                	test   %al,%al
    1953:	74 1f                	je     1974 <propertyShow+0x275>
    1955:	8b 55 d8             	mov    -0x28(%ebp),%edx
    1958:	8b 45 c0             	mov    -0x40(%ebp),%eax
    195b:	01 c2                	add    %eax,%edx
    195d:	8b 4d dc             	mov    -0x24(%ebp),%ecx
    1960:	8b 45 d0             	mov    -0x30(%ebp),%eax
    1963:	01 c8                	add    %ecx,%eax
    1965:	0f b6 00             	movzbl (%eax),%eax
    1968:	88 02                	mov    %al,(%edx)
		else break;
		t0++;
    196a:	83 45 dc 01          	addl   $0x1,-0x24(%ebp)
	}
	char* strht = (char*)malloc((lengthht+1)*sizeof(char));
	//printf(0,"%d",lengthht);
	int t0 = 0;
	int t = lengthht - 1;
	for(;t >= 0;t--)
    196e:	83 6d d8 01          	subl   $0x1,-0x28(%ebp)
    1972:	eb 02                	jmp    1976 <propertyShow+0x277>
	{
		if(strh[t0] != '\0')strht[t] = strh[t0];
		else break;
    1974:	eb 06                	jmp    197c <propertyShow+0x27d>
	}
	char* strht = (char*)malloc((lengthht+1)*sizeof(char));
	//printf(0,"%d",lengthht);
	int t0 = 0;
	int t = lengthht - 1;
	for(;t >= 0;t--)
    1976:	83 7d d8 00          	cmpl   $0x0,-0x28(%ebp)
    197a:	79 ca                	jns    1946 <propertyShow+0x247>
		if(strh[t0] != '\0')strht[t] = strh[t0];
		else break;
		t0++;
		
	}
	strht[lengthht] = '\0';
    197c:	8b 55 c4             	mov    -0x3c(%ebp),%edx
    197f:	8b 45 c0             	mov    -0x40(%ebp),%eax
    1982:	01 d0                	add    %edx,%eax
    1984:	c6 00 00             	movb   $0x0,(%eax)
	free(strh);
    1987:	8b 45 d0             	mov    -0x30(%ebp),%eax
    198a:	89 04 24             	mov    %eax,(%esp)
    198d:	e8 63 2b 00 00       	call   44f5 <free>
	
	printf(0,"In itoa h:");
    1992:	c7 44 24 04 29 ab 00 	movl   $0xab29,0x4(%esp)
    1999:	00 
    199a:	c7 04 24 00 00 00 00 	movl   $0x0,(%esp)
    19a1:	e8 9c 29 00 00       	call   4342 <printf>
	printf(0,strht);
    19a6:	8b 45 c0             	mov    -0x40(%ebp),%eax
    19a9:	89 44 24 04          	mov    %eax,0x4(%esp)
    19ad:	c7 04 24 00 00 00 00 	movl   $0x0,(%esp)
    19b4:	e8 89 29 00 00       	call   4342 <printf>
	printf(0,"\n");
    19b9:	c7 44 24 04 27 ab 00 	movl   $0xab27,0x4(%esp)
    19c0:	00 
    19c1:	c7 04 24 00 00 00 00 	movl   $0x0,(%esp)
    19c8:	e8 75 29 00 00       	call   4342 <printf>

	
	puts_str(context, "Width:", 0, startX+10, startY+10);
    19cd:	8b 45 18             	mov    0x18(%ebp),%eax
    19d0:	8d 50 0a             	lea    0xa(%eax),%edx
    19d3:	8b 45 14             	mov    0x14(%ebp),%eax
    19d6:	83 c0 0a             	add    $0xa,%eax
    19d9:	89 54 24 18          	mov    %edx,0x18(%esp)
    19dd:	89 44 24 14          	mov    %eax,0x14(%esp)
    19e1:	c7 44 24 10 00 00 00 	movl   $0x0,0x10(%esp)
    19e8:	00 
    19e9:	c7 44 24 0c 34 ab 00 	movl   $0xab34,0xc(%esp)
    19f0:	00 
    19f1:	8b 45 08             	mov    0x8(%ebp),%eax
    19f4:	89 04 24             	mov    %eax,(%esp)
    19f7:	8b 45 0c             	mov    0xc(%ebp),%eax
    19fa:	89 44 24 04          	mov    %eax,0x4(%esp)
    19fe:	8b 45 10             	mov    0x10(%ebp),%eax
    1a01:	89 44 24 08          	mov    %eax,0x8(%esp)
    1a05:	e8 8e 0f 00 00       	call   2998 <puts_str>
	puts_str(context, strwt, 0, startX+70, startY+10);
    1a0a:	8b 45 18             	mov    0x18(%ebp),%eax
    1a0d:	8d 50 0a             	lea    0xa(%eax),%edx
    1a10:	8b 45 14             	mov    0x14(%ebp),%eax
    1a13:	83 c0 46             	add    $0x46,%eax
    1a16:	89 54 24 18          	mov    %edx,0x18(%esp)
    1a1a:	89 44 24 14          	mov    %eax,0x14(%esp)
    1a1e:	c7 44 24 10 00 00 00 	movl   $0x0,0x10(%esp)
    1a25:	00 
    1a26:	8b 45 c8             	mov    -0x38(%ebp),%eax
    1a29:	89 44 24 0c          	mov    %eax,0xc(%esp)
    1a2d:	8b 45 08             	mov    0x8(%ebp),%eax
    1a30:	89 04 24             	mov    %eax,(%esp)
    1a33:	8b 45 0c             	mov    0xc(%ebp),%eax
    1a36:	89 44 24 04          	mov    %eax,0x4(%esp)
    1a3a:	8b 45 10             	mov    0x10(%ebp),%eax
    1a3d:	89 44 24 08          	mov    %eax,0x8(%esp)
    1a41:	e8 52 0f 00 00       	call   2998 <puts_str>
	puts_str(context, "Height:", 0, startX+10, startY+30);
    1a46:	8b 45 18             	mov    0x18(%ebp),%eax
    1a49:	8d 50 1e             	lea    0x1e(%eax),%edx
    1a4c:	8b 45 14             	mov    0x14(%ebp),%eax
    1a4f:	83 c0 0a             	add    $0xa,%eax
    1a52:	89 54 24 18          	mov    %edx,0x18(%esp)
    1a56:	89 44 24 14          	mov    %eax,0x14(%esp)
    1a5a:	c7 44 24 10 00 00 00 	movl   $0x0,0x10(%esp)
    1a61:	00 
    1a62:	c7 44 24 0c 3b ab 00 	movl   $0xab3b,0xc(%esp)
    1a69:	00 
    1a6a:	8b 45 08             	mov    0x8(%ebp),%eax
    1a6d:	89 04 24             	mov    %eax,(%esp)
    1a70:	8b 45 0c             	mov    0xc(%ebp),%eax
    1a73:	89 44 24 04          	mov    %eax,0x4(%esp)
    1a77:	8b 45 10             	mov    0x10(%ebp),%eax
    1a7a:	89 44 24 08          	mov    %eax,0x8(%esp)
    1a7e:	e8 15 0f 00 00       	call   2998 <puts_str>
	puts_str(context, strht, 0, startX+70, startY+30);
    1a83:	8b 45 18             	mov    0x18(%ebp),%eax
    1a86:	8d 50 1e             	lea    0x1e(%eax),%edx
    1a89:	8b 45 14             	mov    0x14(%ebp),%eax
    1a8c:	83 c0 46             	add    $0x46,%eax
    1a8f:	89 54 24 18          	mov    %edx,0x18(%esp)
    1a93:	89 44 24 14          	mov    %eax,0x14(%esp)
    1a97:	c7 44 24 10 00 00 00 	movl   $0x0,0x10(%esp)
    1a9e:	00 
    1a9f:	8b 45 c0             	mov    -0x40(%ebp),%eax
    1aa2:	89 44 24 0c          	mov    %eax,0xc(%esp)
    1aa6:	8b 45 08             	mov    0x8(%ebp),%eax
    1aa9:	89 04 24             	mov    %eax,(%esp)
    1aac:	8b 45 0c             	mov    0xc(%ebp),%eax
    1aaf:	89 44 24 04          	mov    %eax,0x4(%esp)
    1ab3:	8b 45 10             	mov    0x10(%ebp),%eax
    1ab6:	89 44 24 08          	mov    %eax,0x8(%esp)
    1aba:	e8 d9 0e 00 00       	call   2998 <puts_str>
	
	//lengthX = 0;
	//lengthY = 0;
	updateWindowWithoutBlank(context);
    1abf:	8b 45 08             	mov    0x8(%ebp),%eax
    1ac2:	89 04 24             	mov    %eax,(%esp)
    1ac5:	8b 45 0c             	mov    0xc(%ebp),%eax
    1ac8:	89 44 24 04          	mov    %eax,0x4(%esp)
    1acc:	8b 45 10             	mov    0x10(%ebp),%eax
    1acf:	89 44 24 08          	mov    %eax,0x8(%esp)
    1ad3:	e8 3f f7 ff ff       	call   1217 <updateWindowWithoutBlank>

}
    1ad8:	83 c4 64             	add    $0x64,%esp
    1adb:	5b                   	pop    %ebx
    1adc:	5d                   	pop    %ebp
    1add:	c3                   	ret    

00001ade <main>:



int main(int argc, char *argv[]) {
    1ade:	8d 4c 24 04          	lea    0x4(%esp),%ecx
    1ae2:	83 e4 f0             	and    $0xfffffff0,%esp
    1ae5:	ff 71 fc             	pushl  -0x4(%ecx)
    1ae8:	55                   	push   %ebp
    1ae9:	89 e5                	mov    %esp,%ebp
    1aeb:	56                   	push   %esi
    1aec:	53                   	push   %ebx
    1aed:	51                   	push   %ecx
    1aee:	81 ec dc 00 00 00    	sub    $0xdc,%esp
    1af4:	89 cb                	mov    %ecx,%ebx
    struct Context context;
    ClickableManager cm;//（这个东西是干吗用的？）
    int winid;
    struct Msg msg;
    Point p;
    len = atoi(argv[2]);
    1af6:	8b 43 04             	mov    0x4(%ebx),%eax
    1af9:	83 c0 08             	add    $0x8,%eax
    1afc:	8b 00                	mov    (%eax),%eax
    1afe:	89 04 24             	mov    %eax,(%esp)
    1b01:	e8 c2 25 00 00       	call   40c8 <atoi>
    1b06:	a3 b0 1b 01 00       	mov    %eax,0x11bb0
    pos = atoi(argv[3]) - 1;
    1b0b:	8b 43 04             	mov    0x4(%ebx),%eax
    1b0e:	83 c0 0c             	add    $0xc,%eax
    1b11:	8b 00                	mov    (%eax),%eax
    1b13:	89 04 24             	mov    %eax,(%esp)
    1b16:	e8 ad 25 00 00       	call   40c8 <atoi>
    1b1b:	83 e8 01             	sub    $0x1,%eax
    1b1e:	a3 0c 1a 01 00       	mov    %eax,0x11a0c
printf(0,"%d",pos);
    1b23:	a1 0c 1a 01 00       	mov    0x11a0c,%eax
    1b28:	89 44 24 08          	mov    %eax,0x8(%esp)
    1b2c:	c7 44 24 04 43 ab 00 	movl   $0xab43,0x4(%esp)
    1b33:	00 
    1b34:	c7 04 24 00 00 00 00 	movl   $0x0,(%esp)
    1b3b:	e8 02 28 00 00       	call   4342 <printf>
printf(0,"   %d   ",len);
    1b40:	a1 b0 1b 01 00       	mov    0x11bb0,%eax
    1b45:	89 44 24 08          	mov    %eax,0x8(%esp)
    1b49:	c7 44 24 04 46 ab 00 	movl   $0xab46,0x4(%esp)
    1b50:	00 
    1b51:	c7 04 24 00 00 00 00 	movl   $0x0,(%esp)
    1b58:	e8 e5 27 00 00       	call   4342 <printf>
    int i = 0;
    1b5d:	c7 45 e4 00 00 00 00 	movl   $0x0,-0x1c(%ebp)
    int j = 0;
    1b64:	c7 45 e0 00 00 00 00 	movl   $0x0,-0x20(%ebp)
    int k = 0;
    1b6b:	c7 45 dc 00 00 00 00 	movl   $0x0,-0x24(%ebp)
    int end = -1;
    1b72:	c7 45 d8 ff ff ff ff 	movl   $0xffffffff,-0x28(%ebp)
    while(i <= len + 3){
    1b79:	e9 9c 00 00 00       	jmp    1c1a <main+0x13c>
	if (argv[2][i]=='\1'){
    1b7e:	8b 43 04             	mov    0x4(%ebx),%eax
    1b81:	83 c0 08             	add    $0x8,%eax
    1b84:	8b 10                	mov    (%eax),%edx
    1b86:	8b 45 e4             	mov    -0x1c(%ebp),%eax
    1b89:	01 d0                	add    %edx,%eax
    1b8b:	0f b6 00             	movzbl (%eax),%eax
    1b8e:	3c 01                	cmp    $0x1,%al
    1b90:	0f 85 80 00 00 00    	jne    1c16 <main+0x138>
	    file[j] = (char*)malloc((i-end)*sizeof(char));
    1b96:	8b 45 d8             	mov    -0x28(%ebp),%eax
    1b99:	8b 55 e4             	mov    -0x1c(%ebp),%edx
    1b9c:	29 c2                	sub    %eax,%edx
    1b9e:	89 d0                	mov    %edx,%eax
    1ba0:	89 04 24             	mov    %eax,(%esp)
    1ba3:	e8 86 2a 00 00       	call   462e <malloc>
    1ba8:	8b 55 e0             	mov    -0x20(%ebp),%edx
    1bab:	89 04 95 20 1a 01 00 	mov    %eax,0x11a20(,%edx,4)
	    for(k = 0;k < (i-end);k++)
    1bb2:	c7 45 dc 00 00 00 00 	movl   $0x0,-0x24(%ebp)
    1bb9:	eb 2d                	jmp    1be8 <main+0x10a>
		file[j][k] = argv[2][end+1+k];
    1bbb:	8b 45 e0             	mov    -0x20(%ebp),%eax
    1bbe:	8b 14 85 20 1a 01 00 	mov    0x11a20(,%eax,4),%edx
    1bc5:	8b 45 dc             	mov    -0x24(%ebp),%eax
    1bc8:	01 c2                	add    %eax,%edx
    1bca:	8b 43 04             	mov    0x4(%ebx),%eax
    1bcd:	83 c0 08             	add    $0x8,%eax
    1bd0:	8b 08                	mov    (%eax),%ecx
    1bd2:	8b 45 d8             	mov    -0x28(%ebp),%eax
    1bd5:	8d 70 01             	lea    0x1(%eax),%esi
    1bd8:	8b 45 dc             	mov    -0x24(%ebp),%eax
    1bdb:	01 f0                	add    %esi,%eax
    1bdd:	01 c8                	add    %ecx,%eax
    1bdf:	0f b6 00             	movzbl (%eax),%eax
    1be2:	88 02                	mov    %al,(%edx)
    int k = 0;
    int end = -1;
    while(i <= len + 3){
	if (argv[2][i]=='\1'){
	    file[j] = (char*)malloc((i-end)*sizeof(char));
	    for(k = 0;k < (i-end);k++)
    1be4:	83 45 dc 01          	addl   $0x1,-0x24(%ebp)
    1be8:	8b 45 d8             	mov    -0x28(%ebp),%eax
    1beb:	8b 55 e4             	mov    -0x1c(%ebp),%edx
    1bee:	29 c2                	sub    %eax,%edx
    1bf0:	89 d0                	mov    %edx,%eax
    1bf2:	3b 45 dc             	cmp    -0x24(%ebp),%eax
    1bf5:	7f c4                	jg     1bbb <main+0xdd>
		file[j][k] = argv[2][end+1+k];
	    file[j][k-1] = '\0';
    1bf7:	8b 45 e0             	mov    -0x20(%ebp),%eax
    1bfa:	8b 04 85 20 1a 01 00 	mov    0x11a20(,%eax,4),%eax
    1c01:	8b 55 dc             	mov    -0x24(%ebp),%edx
    1c04:	83 ea 01             	sub    $0x1,%edx
    1c07:	01 d0                	add    %edx,%eax
    1c09:	c6 00 00             	movb   $0x0,(%eax)
	    end = i;
    1c0c:	8b 45 e4             	mov    -0x1c(%ebp),%eax
    1c0f:	89 45 d8             	mov    %eax,-0x28(%ebp)
	    j++;
    1c12:	83 45 e0 01          	addl   $0x1,-0x20(%ebp)
	    
	}
	i++;
    1c16:	83 45 e4 01          	addl   $0x1,-0x1c(%ebp)
printf(0,"   %d   ",len);
    int i = 0;
    int j = 0;
    int k = 0;
    int end = -1;
    while(i <= len + 3){
    1c1a:	a1 b0 1b 01 00       	mov    0x11bb0,%eax
    1c1f:	83 c0 03             	add    $0x3,%eax
    1c22:	3b 45 e4             	cmp    -0x1c(%ebp),%eax
    1c25:	0f 8d 53 ff ff ff    	jge    1b7e <main+0xa0>
	    
	}
	i++;
    }

	len = j;
    1c2b:	8b 45 e0             	mov    -0x20(%ebp),%eax
    1c2e:	a3 b0 1b 01 00       	mov    %eax,0x11bb0
	
	



    winid = init_context(&context, WINDOW_WIDTH, WINDOW_HEIGHT);//根据窗口大小初始化背景
    1c33:	c7 44 24 08 36 01 00 	movl   $0x136,0x8(%esp)
    1c3a:	00 
    1c3b:	c7 44 24 04 f4 01 00 	movl   $0x1f4,0x4(%esp)
    1c42:	00 
    1c43:	8d 45 98             	lea    -0x68(%ebp),%eax
    1c46:	89 04 24             	mov    %eax,(%esp)
    1c49:	e8 7f 06 00 00       	call   22cd <init_context>
    1c4e:	89 45 d4             	mov    %eax,-0x2c(%ebp)
    cm = initClickManager(context);//根据背景初始化ClickableManager
    1c51:	8d 85 38 ff ff ff    	lea    -0xc8(%ebp),%eax
    1c57:	8b 55 98             	mov    -0x68(%ebp),%edx
    1c5a:	89 54 24 04          	mov    %edx,0x4(%esp)
    1c5e:	8b 55 9c             	mov    -0x64(%ebp),%edx
    1c61:	89 54 24 08          	mov    %edx,0x8(%esp)
    1c65:	8b 55 a0             	mov    -0x60(%ebp),%edx
    1c68:	89 54 24 0c          	mov    %edx,0xc(%esp)
    1c6c:	89 04 24             	mov    %eax,(%esp)
    1c6f:	e8 2d 1c 00 00       	call   38a1 <initClickManager>
    1c74:	83 ec 04             	sub    $0x4,%esp
    1c77:	8b 85 38 ff ff ff    	mov    -0xc8(%ebp),%eax
    1c7d:	89 45 84             	mov    %eax,-0x7c(%ebp)
    1c80:	8b 85 3c ff ff ff    	mov    -0xc4(%ebp),%eax
    1c86:	89 45 88             	mov    %eax,-0x78(%ebp)
    1c89:	8b 85 40 ff ff ff    	mov    -0xc0(%ebp),%eax
    1c8f:	89 45 8c             	mov    %eax,-0x74(%ebp)
    1c92:	8b 85 44 ff ff ff    	mov    -0xbc(%ebp),%eax
    1c98:	89 45 90             	mov    %eax,-0x70(%ebp)
    1c9b:	8b 85 48 ff ff ff    	mov    -0xb8(%ebp),%eax
    1ca1:	89 45 94             	mov    %eax,-0x6c(%ebp)

    loadBitmap(&pic, file[pos]);//载入bmp
    1ca4:	a1 0c 1a 01 00       	mov    0x11a0c,%eax
    1ca9:	8b 04 85 20 1a 01 00 	mov    0x11a20(,%eax,4),%eax
    1cb0:	89 44 24 04          	mov    %eax,0x4(%esp)
    1cb4:	c7 04 24 00 1a 01 00 	movl   $0x11a00,(%esp)
    1cbb:	e8 c8 12 00 00       	call   2f88 <loadBitmap>
    load_iconlist(wndRes, sizeof(wndRes) / sizeof(ICON));//载入图标数组
    1cc0:	c7 44 24 04 01 00 00 	movl   $0x1,0x4(%esp)
    1cc7:	00 
    1cc8:	c7 04 24 c0 e6 00 00 	movl   $0xe6c0,(%esp)
    1ccf:	e8 f3 11 00 00       	call   2ec7 <load_iconlist>

    modifyPic(context);//按照背景修改图片
    1cd4:	8b 45 98             	mov    -0x68(%ebp),%eax
    1cd7:	89 04 24             	mov    %eax,(%esp)
    1cda:	8b 45 9c             	mov    -0x64(%ebp),%eax
    1cdd:	89 44 24 04          	mov    %eax,0x4(%esp)
    1ce1:	8b 45 a0             	mov    -0x60(%ebp),%eax
    1ce4:	89 44 24 08          	mov    %eax,0x8(%esp)
    1ce8:	e8 be ea ff ff       	call   7ab <modifyPic>
    deleteClickable(&cm.left_click, initRect(0, 0, 800, 600));
    1ced:	8d 45 a4             	lea    -0x5c(%ebp),%eax
    1cf0:	c7 44 24 10 58 02 00 	movl   $0x258,0x10(%esp)
    1cf7:	00 
    1cf8:	c7 44 24 0c 20 03 00 	movl   $0x320,0xc(%esp)
    1cff:	00 
    1d00:	c7 44 24 08 00 00 00 	movl   $0x0,0x8(%esp)
    1d07:	00 
    1d08:	c7 44 24 04 00 00 00 	movl   $0x0,0x4(%esp)
    1d0f:	00 
    1d10:	89 04 24             	mov    %eax,(%esp)
    1d13:	e8 eb 1a 00 00       	call   3803 <initRect>
    1d18:	83 ec 04             	sub    $0x4,%esp
    1d1b:	8b 45 a4             	mov    -0x5c(%ebp),%eax
    1d1e:	89 44 24 04          	mov    %eax,0x4(%esp)
    1d22:	8b 45 a8             	mov    -0x58(%ebp),%eax
    1d25:	89 44 24 08          	mov    %eax,0x8(%esp)
    1d29:	8b 45 ac             	mov    -0x54(%ebp),%eax
    1d2c:	89 44 24 0c          	mov    %eax,0xc(%esp)
    1d30:	8b 45 b0             	mov    -0x50(%ebp),%eax
    1d33:	89 44 24 10          	mov    %eax,0x10(%esp)
    1d37:	8d 45 84             	lea    -0x7c(%ebp),%eax
    1d3a:	89 04 24             	mov    %eax,(%esp)
    1d3d:	e8 c4 1c 00 00       	call   3a06 <deleteClickable>
    addWndEvent(&cm);//添加cm到窗口事件
    1d42:	8d 45 84             	lea    -0x7c(%ebp),%eax
    1d45:	89 04 24             	mov    %eax,(%esp)
    1d48:	e8 ec f8 ff ff       	call   1639 <addWndEvent>

    Initialize(context);
    1d4d:	8b 45 98             	mov    -0x68(%ebp),%eax
    1d50:	89 04 24             	mov    %eax,(%esp)
    1d53:	8b 45 9c             	mov    -0x64(%ebp),%eax
    1d56:	89 44 24 04          	mov    %eax,0x4(%esp)
    1d5a:	8b 45 a0             	mov    -0x60(%ebp),%eax
    1d5d:	89 44 24 08          	mov    %eax,0x8(%esp)
    1d61:	e8 9a e2 ff ff       	call   0 <Initialize>

    while (isRun) {
    1d66:	e9 3e 05 00 00       	jmp    22a9 <main+0x7cb>
        getMsg(&msg);//获取消息
    1d6b:	8d 85 68 ff ff ff    	lea    -0x98(%ebp),%eax
    1d71:	89 04 24             	mov    %eax,(%esp)
    1d74:	e8 81 24 00 00       	call   41fa <getMsg>
        switch (msg.msg_type) {//判断消息类型
    1d79:	8b 85 68 ff ff ff    	mov    -0x98(%ebp),%eax
    1d7f:	83 f8 08             	cmp    $0x8,%eax
    1d82:	0f 87 20 05 00 00    	ja     22a8 <main+0x7ca>
    1d88:	8b 04 85 ac ab 00 00 	mov    0xabac(,%eax,4),%eax
    1d8f:	ff e0                	jmp    *%eax
		case MSG_DOUBLECLICK://双击消息
			p = initPoint(msg.concrete_msg.msg_mouse.x,msg.concrete_msg.msg_mouse.y);//获取到鼠标现在的点
    1d91:	8b 8d 74 ff ff ff    	mov    -0x8c(%ebp),%ecx
    1d97:	8b 95 70 ff ff ff    	mov    -0x90(%ebp),%edx
    1d9d:	8d 85 60 ff ff ff    	lea    -0xa0(%ebp),%eax
    1da3:	89 4c 24 08          	mov    %ecx,0x8(%esp)
    1da7:	89 54 24 04          	mov    %edx,0x4(%esp)
    1dab:	89 04 24             	mov    %eax,(%esp)
    1dae:	e8 29 1a 00 00       	call   37dc <initPoint>
    1db3:	83 ec 04             	sub    $0x4,%esp
			if (executeHandler(cm.double_click, p))//（暂时不懂）
    1db6:	8b 4d 88             	mov    -0x78(%ebp),%ecx
    1db9:	8b 85 60 ff ff ff    	mov    -0xa0(%ebp),%eax
    1dbf:	8b 95 64 ff ff ff    	mov    -0x9c(%ebp),%edx
    1dc5:	89 44 24 04          	mov    %eax,0x4(%esp)
    1dc9:	89 54 24 08          	mov    %edx,0x8(%esp)
    1dcd:	89 0c 24             	mov    %ecx,(%esp)
    1dd0:	e8 11 1d 00 00       	call   3ae6 <executeHandler>
    1dd5:	85 c0                	test   %eax,%eax
    1dd7:	74 1c                	je     1df5 <main+0x317>
            		{
				updateWindow(winid, context.addr, msg.msg_detail);//更新窗口
    1dd9:	8b 95 6c ff ff ff    	mov    -0x94(%ebp),%edx
    1ddf:	8b 45 98             	mov    -0x68(%ebp),%eax
    1de2:	89 54 24 08          	mov    %edx,0x8(%esp)
    1de6:	89 44 24 04          	mov    %eax,0x4(%esp)
    1dea:	8b 45 d4             	mov    -0x2c(%ebp),%eax
    1ded:	89 04 24             	mov    %eax,(%esp)
    1df0:	e8 1d 24 00 00       	call   4212 <updateWindow>
			}
            		printf(0,"DoubleClick: context_width: %d, context_height: %d\n", context.width, context.height);
    1df5:	8b 55 a0             	mov    -0x60(%ebp),%edx
    1df8:	8b 45 9c             	mov    -0x64(%ebp),%eax
    1dfb:	89 54 24 0c          	mov    %edx,0xc(%esp)
    1dff:	89 44 24 08          	mov    %eax,0x8(%esp)
    1e03:	c7 44 24 04 50 ab 00 	movl   $0xab50,0x4(%esp)
    1e0a:	00 
    1e0b:	c7 04 24 00 00 00 00 	movl   $0x0,(%esp)
    1e12:	e8 2b 25 00 00       	call   4342 <printf>
			printf(0,"DoubleClick: mouseX: %d, mouseY: %d\n", p.x, p.y);
    1e17:	8b 95 64 ff ff ff    	mov    -0x9c(%ebp),%edx
    1e1d:	8b 85 60 ff ff ff    	mov    -0xa0(%ebp),%eax
    1e23:	89 54 24 0c          	mov    %edx,0xc(%esp)
    1e27:	89 44 24 08          	mov    %eax,0x8(%esp)
    1e2b:	c7 44 24 04 84 ab 00 	movl   $0xab84,0x4(%esp)
    1e32:	00 
    1e33:	c7 04 24 00 00 00 00 	movl   $0x0,(%esp)
    1e3a:	e8 03 25 00 00       	call   4342 <printf>
            		zoomingPic(context,p.x,p.y);
    1e3f:	8b 95 64 ff ff ff    	mov    -0x9c(%ebp),%edx
    1e45:	8b 85 60 ff ff ff    	mov    -0xa0(%ebp),%eax
    1e4b:	89 54 24 10          	mov    %edx,0x10(%esp)
    1e4f:	89 44 24 0c          	mov    %eax,0xc(%esp)
    1e53:	8b 45 98             	mov    -0x68(%ebp),%eax
    1e56:	89 04 24             	mov    %eax,(%esp)
    1e59:	8b 45 9c             	mov    -0x64(%ebp),%eax
    1e5c:	89 44 24 04          	mov    %eax,0x4(%esp)
    1e60:	8b 45 a0             	mov    -0x60(%ebp),%eax
    1e63:	89 44 24 08          	mov    %eax,0x8(%esp)
    1e67:	e8 80 ed ff ff       	call   bec <zoomingPic>
            		updateWindow(winid, context.addr, msg.msg_detail);
    1e6c:	8b 95 6c ff ff ff    	mov    -0x94(%ebp),%edx
    1e72:	8b 45 98             	mov    -0x68(%ebp),%eax
    1e75:	89 54 24 08          	mov    %edx,0x8(%esp)
    1e79:	89 44 24 04          	mov    %eax,0x4(%esp)
    1e7d:	8b 45 d4             	mov    -0x2c(%ebp),%eax
    1e80:	89 04 24             	mov    %eax,(%esp)
    1e83:	e8 8a 23 00 00       	call   4212 <updateWindow>
                
			break;
    1e88:	e9 1c 04 00 00       	jmp    22a9 <main+0x7cb>
		case MSG_UPDATE://更新消息（太好了貌似可以直接调重绘了）
			drawPicViewerWnd(context);//绘制窗口
    1e8d:	8b 45 98             	mov    -0x68(%ebp),%eax
    1e90:	89 04 24             	mov    %eax,(%esp)
    1e93:	8b 45 9c             	mov    -0x64(%ebp),%eax
    1e96:	89 44 24 04          	mov    %eax,0x4(%esp)
    1e9a:	8b 45 a0             	mov    -0x60(%ebp),%eax
    1e9d:	89 44 24 08          	mov    %eax,0x8(%esp)
    1ea1:	e8 77 f0 ff ff       	call   f1d <drawPicViewerWnd>
			drawPicViewerContent(context, file[pos]);//背景里绘制图片
    1ea6:	a1 0c 1a 01 00       	mov    0x11a0c,%eax
    1eab:	8b 04 85 20 1a 01 00 	mov    0x11a20(,%eax,4),%eax
    1eb2:	89 44 24 0c          	mov    %eax,0xc(%esp)
    1eb6:	8b 45 98             	mov    -0x68(%ebp),%eax
    1eb9:	89 04 24             	mov    %eax,(%esp)
    1ebc:	8b 45 9c             	mov    -0x64(%ebp),%eax
    1ebf:	89 44 24 04          	mov    %eax,0x4(%esp)
    1ec3:	8b 45 a0             	mov    -0x60(%ebp),%eax
    1ec6:	89 44 24 08          	mov    %eax,0x8(%esp)
    1eca:	e8 2a f6 ff ff       	call   14f9 <drawPicViewerContent>
			updateWindow(winid, context.addr, msg.msg_detail);//更新窗口
    1ecf:	8b 95 6c ff ff ff    	mov    -0x94(%ebp),%edx
    1ed5:	8b 45 98             	mov    -0x68(%ebp),%eax
    1ed8:	89 54 24 08          	mov    %edx,0x8(%esp)
    1edc:	89 44 24 04          	mov    %eax,0x4(%esp)
    1ee0:	8b 45 d4             	mov    -0x2c(%ebp),%eax
    1ee3:	89 04 24             	mov    %eax,(%esp)
    1ee6:	e8 27 23 00 00       	call   4212 <updateWindow>
			break;
    1eeb:	e9 b9 03 00 00       	jmp    22a9 <main+0x7cb>
		case MSG_PARTIAL_UPDATE://部分更新消息
			updatePartialWindow(winid, context.addr,
    1ef0:	8b b5 7c ff ff ff    	mov    -0x84(%ebp),%esi
    1ef6:	8b 9d 78 ff ff ff    	mov    -0x88(%ebp),%ebx
    1efc:	8b 8d 74 ff ff ff    	mov    -0x8c(%ebp),%ecx
    1f02:	8b 95 70 ff ff ff    	mov    -0x90(%ebp),%edx
    1f08:	8b 45 98             	mov    -0x68(%ebp),%eax
    1f0b:	89 74 24 14          	mov    %esi,0x14(%esp)
    1f0f:	89 5c 24 10          	mov    %ebx,0x10(%esp)
    1f13:	89 4c 24 0c          	mov    %ecx,0xc(%esp)
    1f17:	89 54 24 08          	mov    %edx,0x8(%esp)
    1f1b:	89 44 24 04          	mov    %eax,0x4(%esp)
    1f1f:	8b 45 d4             	mov    -0x2c(%ebp),%eax
    1f22:	89 04 24             	mov    %eax,(%esp)
    1f25:	e8 f0 22 00 00       	call   421a <updatePartialWindow>
					msg.concrete_msg.msg_partial_update.x1,
					msg.concrete_msg.msg_partial_update.y1,
					msg.concrete_msg.msg_partial_update.x2,
					msg.concrete_msg.msg_partial_update.y2);//还能部分更新窗口？以一个矩形区域更新
			break;
    1f2a:	e9 7a 03 00 00       	jmp    22a9 <main+0x7cb>
		case MSG_LPRESS://鼠标左键按下
			p = initPoint(msg.concrete_msg.msg_mouse.x,
    1f2f:	8b 8d 74 ff ff ff    	mov    -0x8c(%ebp),%ecx
    1f35:	8b 95 70 ff ff ff    	mov    -0x90(%ebp),%edx
    1f3b:	8d 85 30 ff ff ff    	lea    -0xd0(%ebp),%eax
    1f41:	89 4c 24 08          	mov    %ecx,0x8(%esp)
    1f45:	89 54 24 04          	mov    %edx,0x4(%esp)
    1f49:	89 04 24             	mov    %eax,(%esp)
    1f4c:	e8 8b 18 00 00       	call   37dc <initPoint>
    1f51:	83 ec 04             	sub    $0x4,%esp
    1f54:	8b 85 30 ff ff ff    	mov    -0xd0(%ebp),%eax
    1f5a:	8b 95 34 ff ff ff    	mov    -0xcc(%ebp),%edx
    1f60:	89 85 60 ff ff ff    	mov    %eax,-0xa0(%ebp)
    1f66:	89 95 64 ff ff ff    	mov    %edx,-0x9c(%ebp)
					msg.concrete_msg.msg_mouse.y);//获取到鼠标现在的点

			//Rolling Button Area:(40,3),(56,18)
			int RBlowX = 40;
    1f6c:	c7 45 d0 28 00 00 00 	movl   $0x28,-0x30(%ebp)
			int RBlowY = 3;
    1f73:	c7 45 cc 03 00 00 00 	movl   $0x3,-0x34(%ebp)
			int RBhighX = 56;
    1f7a:	c7 45 c8 38 00 00 00 	movl   $0x38,-0x38(%ebp)
			int RBhighY = 18;
    1f81:	c7 45 c4 12 00 00 00 	movl   $0x12,-0x3c(%ebp)
			if(p.x >= RBlowX && p.x <= RBhighX && p.y >= RBlowY && p.y <= RBhighY)
    1f88:	8b 85 60 ff ff ff    	mov    -0xa0(%ebp),%eax
    1f8e:	3b 45 d0             	cmp    -0x30(%ebp),%eax
    1f91:	7c 3a                	jl     1fcd <main+0x4ef>
    1f93:	8b 85 60 ff ff ff    	mov    -0xa0(%ebp),%eax
    1f99:	3b 45 c8             	cmp    -0x38(%ebp),%eax
    1f9c:	7f 2f                	jg     1fcd <main+0x4ef>
    1f9e:	8b 85 64 ff ff ff    	mov    -0x9c(%ebp),%eax
    1fa4:	3b 45 cc             	cmp    -0x34(%ebp),%eax
    1fa7:	7c 24                	jl     1fcd <main+0x4ef>
    1fa9:	8b 85 64 ff ff ff    	mov    -0x9c(%ebp),%eax
    1faf:	3b 45 c4             	cmp    -0x3c(%ebp),%eax
    1fb2:	7f 19                	jg     1fcd <main+0x4ef>
			{
				rollingPic(context);
    1fb4:	8b 45 98             	mov    -0x68(%ebp),%eax
    1fb7:	89 04 24             	mov    %eax,(%esp)
    1fba:	8b 45 9c             	mov    -0x64(%ebp),%eax
    1fbd:	89 44 24 04          	mov    %eax,0x4(%esp)
    1fc1:	8b 45 a0             	mov    -0x60(%ebp),%eax
    1fc4:	89 44 24 08          	mov    %eax,0x8(%esp)
    1fc8:	e8 d3 ec ff ff       	call   ca0 <rollingPic>
				
			}

			int NElowX = 60;
    1fcd:	c7 45 c0 3c 00 00 00 	movl   $0x3c,-0x40(%ebp)
			int NElowY = 3;
    1fd4:	c7 45 bc 03 00 00 00 	movl   $0x3,-0x44(%ebp)
			int NEhighX = 76;
    1fdb:	c7 45 b8 4c 00 00 00 	movl   $0x4c,-0x48(%ebp)
			int NEhighY = 18;
    1fe2:	c7 45 b4 12 00 00 00 	movl   $0x12,-0x4c(%ebp)
			if(p.x >= NElowX && p.x <= NEhighX && p.y >= NElowY && p.y <= NEhighY)
    1fe9:	8b 85 60 ff ff ff    	mov    -0xa0(%ebp),%eax
    1fef:	3b 45 c0             	cmp    -0x40(%ebp),%eax
    1ff2:	7c 3a                	jl     202e <main+0x550>
    1ff4:	8b 85 60 ff ff ff    	mov    -0xa0(%ebp),%eax
    1ffa:	3b 45 b8             	cmp    -0x48(%ebp),%eax
    1ffd:	7f 2f                	jg     202e <main+0x550>
    1fff:	8b 85 64 ff ff ff    	mov    -0x9c(%ebp),%eax
    2005:	3b 45 bc             	cmp    -0x44(%ebp),%eax
    2008:	7c 24                	jl     202e <main+0x550>
    200a:	8b 85 64 ff ff ff    	mov    -0x9c(%ebp),%eax
    2010:	3b 45 b4             	cmp    -0x4c(%ebp),%eax
    2013:	7f 19                	jg     202e <main+0x550>
			{
				nextPic(context);
    2015:	8b 45 98             	mov    -0x68(%ebp),%eax
    2018:	89 04 24             	mov    %eax,(%esp)
    201b:	8b 45 9c             	mov    -0x64(%ebp),%eax
    201e:	89 44 24 04          	mov    %eax,0x4(%esp)
    2022:	8b 45 a0             	mov    -0x60(%ebp),%eax
    2025:	89 44 24 08          	mov    %eax,0x8(%esp)
    2029:	e8 f3 ed ff ff       	call   e21 <nextPic>
			}

			updateWindow(winid, context.addr, msg.msg_detail);//更新窗口
    202e:	8b 95 6c ff ff ff    	mov    -0x94(%ebp),%edx
    2034:	8b 45 98             	mov    -0x68(%ebp),%eax
    2037:	89 54 24 08          	mov    %edx,0x8(%esp)
    203b:	89 44 24 04          	mov    %eax,0x4(%esp)
    203f:	8b 45 d4             	mov    -0x2c(%ebp),%eax
    2042:	89 04 24             	mov    %eax,(%esp)
    2045:	e8 c8 21 00 00       	call   4212 <updateWindow>

			if (executeHandler(cm.left_click, p)) {//（暂时不懂）
    204a:	8b 4d 84             	mov    -0x7c(%ebp),%ecx
    204d:	8b 85 60 ff ff ff    	mov    -0xa0(%ebp),%eax
    2053:	8b 95 64 ff ff ff    	mov    -0x9c(%ebp),%edx
    2059:	89 44 24 04          	mov    %eax,0x4(%esp)
    205d:	89 54 24 08          	mov    %edx,0x8(%esp)
    2061:	89 0c 24             	mov    %ecx,(%esp)
    2064:	e8 7d 1a 00 00       	call   3ae6 <executeHandler>
    2069:	85 c0                	test   %eax,%eax
    206b:	74 21                	je     208e <main+0x5b0>

				updateWindow(winid, context.addr, msg.msg_detail);
    206d:	8b 95 6c ff ff ff    	mov    -0x94(%ebp),%edx
    2073:	8b 45 98             	mov    -0x68(%ebp),%eax
    2076:	89 54 24 08          	mov    %edx,0x8(%esp)
    207a:	89 44 24 04          	mov    %eax,0x4(%esp)
    207e:	8b 45 d4             	mov    -0x2c(%ebp),%eax
    2081:	89 04 24             	mov    %eax,(%esp)
    2084:	e8 89 21 00 00       	call   4212 <updateWindow>
			}
			break;
    2089:	e9 1b 02 00 00       	jmp    22a9 <main+0x7cb>
    208e:	e9 16 02 00 00       	jmp    22a9 <main+0x7cb>
		case MSG_RPRESS://鼠标右键按下
			p = initPoint(msg.concrete_msg.msg_mouse.x,
    2093:	8b 8d 74 ff ff ff    	mov    -0x8c(%ebp),%ecx
    2099:	8b 95 70 ff ff ff    	mov    -0x90(%ebp),%edx
    209f:	8d 85 30 ff ff ff    	lea    -0xd0(%ebp),%eax
    20a5:	89 4c 24 08          	mov    %ecx,0x8(%esp)
    20a9:	89 54 24 04          	mov    %edx,0x4(%esp)
    20ad:	89 04 24             	mov    %eax,(%esp)
    20b0:	e8 27 17 00 00       	call   37dc <initPoint>
    20b5:	83 ec 04             	sub    $0x4,%esp
    20b8:	8b 85 30 ff ff ff    	mov    -0xd0(%ebp),%eax
    20be:	8b 95 34 ff ff ff    	mov    -0xcc(%ebp),%edx
    20c4:	89 85 60 ff ff ff    	mov    %eax,-0xa0(%ebp)
    20ca:	89 95 64 ff ff ff    	mov    %edx,-0x9c(%ebp)
					msg.concrete_msg.msg_mouse.y);
			if(isShowing == 0)
    20d0:	a1 00 ec 00 00       	mov    0xec00,%eax
    20d5:	85 c0                	test   %eax,%eax
    20d7:	75 39                	jne    2112 <main+0x634>
			{
				propertyShow(context, p.x, p.y);
    20d9:	8b 95 64 ff ff ff    	mov    -0x9c(%ebp),%edx
    20df:	8b 85 60 ff ff ff    	mov    -0xa0(%ebp),%eax
    20e5:	89 54 24 10          	mov    %edx,0x10(%esp)
    20e9:	89 44 24 0c          	mov    %eax,0xc(%esp)
    20ed:	8b 45 98             	mov    -0x68(%ebp),%eax
    20f0:	89 04 24             	mov    %eax,(%esp)
    20f3:	8b 45 9c             	mov    -0x64(%ebp),%eax
    20f6:	89 44 24 04          	mov    %eax,0x4(%esp)
    20fa:	8b 45 a0             	mov    -0x60(%ebp),%eax
    20fd:	89 44 24 08          	mov    %eax,0x8(%esp)
    2101:	e8 f9 f5 ff ff       	call   16ff <propertyShow>
				isShowing = 1;
    2106:	c7 05 00 ec 00 00 01 	movl   $0x1,0xec00
    210d:	00 00 00 
    2110:	eb 56                	jmp    2168 <main+0x68a>
			}
			else if(isShowing == 1)
    2112:	a1 00 ec 00 00       	mov    0xec00,%eax
    2117:	83 f8 01             	cmp    $0x1,%eax
    211a:	75 4c                	jne    2168 <main+0x68a>
			{
				drawPicViewerWnd(context);
    211c:	8b 45 98             	mov    -0x68(%ebp),%eax
    211f:	89 04 24             	mov    %eax,(%esp)
    2122:	8b 45 9c             	mov    -0x64(%ebp),%eax
    2125:	89 44 24 04          	mov    %eax,0x4(%esp)
    2129:	8b 45 a0             	mov    -0x60(%ebp),%eax
    212c:	89 44 24 08          	mov    %eax,0x8(%esp)
    2130:	e8 e8 ed ff ff       	call   f1d <drawPicViewerWnd>
				drawPicViewerContentForProper(context, file[pos]);//背景里绘制图片
    2135:	a1 0c 1a 01 00       	mov    0x11a0c,%eax
    213a:	8b 04 85 20 1a 01 00 	mov    0x11a20(,%eax,4),%eax
    2141:	89 44 24 0c          	mov    %eax,0xc(%esp)
    2145:	8b 45 98             	mov    -0x68(%ebp),%eax
    2148:	89 04 24             	mov    %eax,(%esp)
    214b:	8b 45 9c             	mov    -0x64(%ebp),%eax
    214e:	89 44 24 04          	mov    %eax,0x4(%esp)
    2152:	8b 45 a0             	mov    -0x60(%ebp),%eax
    2155:	89 44 24 08          	mov    %eax,0x8(%esp)
    2159:	e8 7d f4 ff ff       	call   15db <drawPicViewerContentForProper>
				isShowing = 0;
    215e:	c7 05 00 ec 00 00 00 	movl   $0x0,0xec00
    2165:	00 00 00 
			}
			updateWindow(winid, context.addr, msg.msg_detail);//更新窗口
    2168:	8b 95 6c ff ff ff    	mov    -0x94(%ebp),%edx
    216e:	8b 45 98             	mov    -0x68(%ebp),%eax
    2171:	89 54 24 08          	mov    %edx,0x8(%esp)
    2175:	89 44 24 04          	mov    %eax,0x4(%esp)
    2179:	8b 45 d4             	mov    -0x2c(%ebp),%eax
    217c:	89 04 24             	mov    %eax,(%esp)
    217f:	e8 8e 20 00 00       	call   4212 <updateWindow>
			if (executeHandler(cm.right_click, p)) {
    2184:	8b 4d 8c             	mov    -0x74(%ebp),%ecx
    2187:	8b 85 60 ff ff ff    	mov    -0xa0(%ebp),%eax
    218d:	8b 95 64 ff ff ff    	mov    -0x9c(%ebp),%edx
    2193:	89 44 24 04          	mov    %eax,0x4(%esp)
    2197:	89 54 24 08          	mov    %edx,0x8(%esp)
    219b:	89 0c 24             	mov    %ecx,(%esp)
    219e:	e8 43 19 00 00       	call   3ae6 <executeHandler>
    21a3:	85 c0                	test   %eax,%eax
    21a5:	74 21                	je     21c8 <main+0x6ea>
				updateWindow(winid, context.addr, msg.msg_detail);
    21a7:	8b 95 6c ff ff ff    	mov    -0x94(%ebp),%edx
    21ad:	8b 45 98             	mov    -0x68(%ebp),%eax
    21b0:	89 54 24 08          	mov    %edx,0x8(%esp)
    21b4:	89 44 24 04          	mov    %eax,0x4(%esp)
    21b8:	8b 45 d4             	mov    -0x2c(%ebp),%eax
    21bb:	89 04 24             	mov    %eax,(%esp)
    21be:	e8 4f 20 00 00       	call   4212 <updateWindow>
			}
			break;
    21c3:	e9 e1 00 00 00       	jmp    22a9 <main+0x7cb>
    21c8:	e9 dc 00 00 00       	jmp    22a9 <main+0x7cb>
		case MSG_KEYDOWN:
			switch(msg.concrete_msg.msg_key.key) {
    21cd:	0f b6 85 70 ff ff ff 	movzbl -0x90(%ebp),%eax
    21d4:	0f be c0             	movsbl %al,%eax
    21d7:	83 f8 34             	cmp    $0x34,%eax
    21da:	74 18                	je     21f4 <main+0x716>
    21dc:	83 f8 34             	cmp    $0x34,%eax
    21df:	7f 07                	jg     21e8 <main+0x70a>
    21e1:	83 f8 32             	cmp    $0x32,%eax
    21e4:	74 3b                	je     2221 <main+0x743>
					break;
				case 50:
					Y_shift += shift_at_once;
					break;
				default:
					break;
    21e6:	eb 47                	jmp    222f <main+0x751>
			if (executeHandler(cm.right_click, p)) {
				updateWindow(winid, context.addr, msg.msg_detail);
			}
			break;
		case MSG_KEYDOWN:
			switch(msg.concrete_msg.msg_key.key) {
    21e8:	83 f8 36             	cmp    $0x36,%eax
    21eb:	74 16                	je     2203 <main+0x725>
    21ed:	83 f8 38             	cmp    $0x38,%eax
    21f0:	74 20                	je     2212 <main+0x734>
					break;
				case 50:
					Y_shift += shift_at_once;
					break;
				default:
					break;
    21f2:	eb 3b                	jmp    222f <main+0x751>
			}
			break;
		case MSG_KEYDOWN:
			switch(msg.concrete_msg.msg_key.key) {
				case 52:
					X_shift -= shift_at_once;
    21f4:	a1 0c ec 00 00       	mov    0xec0c,%eax
    21f9:	83 e8 05             	sub    $0x5,%eax
    21fc:	a3 0c ec 00 00       	mov    %eax,0xec0c
					break;
    2201:	eb 2c                	jmp    222f <main+0x751>
				case 54:
					X_shift += shift_at_once;
    2203:	a1 0c ec 00 00       	mov    0xec0c,%eax
    2208:	83 c0 05             	add    $0x5,%eax
    220b:	a3 0c ec 00 00       	mov    %eax,0xec0c
					break;
    2210:	eb 1d                	jmp    222f <main+0x751>
				case 56:
					Y_shift -= shift_at_once;
    2212:	a1 10 ec 00 00       	mov    0xec10,%eax
    2217:	83 e8 05             	sub    $0x5,%eax
    221a:	a3 10 ec 00 00       	mov    %eax,0xec10
					break;
    221f:	eb 0e                	jmp    222f <main+0x751>
				case 50:
					Y_shift += shift_at_once;
    2221:	a1 10 ec 00 00       	mov    0xec10,%eax
    2226:	83 c0 05             	add    $0x5,%eax
    2229:	a3 10 ec 00 00       	mov    %eax,0xec10
					break;
    222e:	90                   	nop
				default:
					break;
			}
			drawPicViewerWnd(context);
    222f:	8b 45 98             	mov    -0x68(%ebp),%eax
    2232:	89 04 24             	mov    %eax,(%esp)
    2235:	8b 45 9c             	mov    -0x64(%ebp),%eax
    2238:	89 44 24 04          	mov    %eax,0x4(%esp)
    223c:	8b 45 a0             	mov    -0x60(%ebp),%eax
    223f:	89 44 24 08          	mov    %eax,0x8(%esp)
    2243:	e8 d5 ec ff ff       	call   f1d <drawPicViewerWnd>
			drawPicViewerContent(context, file[pos]);
    2248:	a1 0c 1a 01 00       	mov    0x11a0c,%eax
    224d:	8b 04 85 20 1a 01 00 	mov    0x11a20(,%eax,4),%eax
    2254:	89 44 24 0c          	mov    %eax,0xc(%esp)
    2258:	8b 45 98             	mov    -0x68(%ebp),%eax
    225b:	89 04 24             	mov    %eax,(%esp)
    225e:	8b 45 9c             	mov    -0x64(%ebp),%eax
    2261:	89 44 24 04          	mov    %eax,0x4(%esp)
    2265:	8b 45 a0             	mov    -0x60(%ebp),%eax
    2268:	89 44 24 08          	mov    %eax,0x8(%esp)
    226c:	e8 88 f2 ff ff       	call   14f9 <drawPicViewerContent>
			updateWindowWithoutBlank(context);
    2271:	8b 45 98             	mov    -0x68(%ebp),%eax
    2274:	89 04 24             	mov    %eax,(%esp)
    2277:	8b 45 9c             	mov    -0x64(%ebp),%eax
    227a:	89 44 24 04          	mov    %eax,0x4(%esp)
    227e:	8b 45 a0             	mov    -0x60(%ebp),%eax
    2281:	89 44 24 08          	mov    %eax,0x8(%esp)
    2285:	e8 8d ef ff ff       	call   1217 <updateWindowWithoutBlank>
			updateWindow(winid, context.addr, msg.msg_detail);
    228a:	8b 95 6c ff ff ff    	mov    -0x94(%ebp),%edx
    2290:	8b 45 98             	mov    -0x68(%ebp),%eax
    2293:	89 54 24 08          	mov    %edx,0x8(%esp)
    2297:	89 44 24 04          	mov    %eax,0x4(%esp)
    229b:	8b 45 d4             	mov    -0x2c(%ebp),%eax
    229e:	89 04 24             	mov    %eax,(%esp)
    22a1:	e8 6c 1f 00 00       	call   4212 <updateWindow>
			break;
    22a6:	eb 01                	jmp    22a9 <main+0x7cb>
		default:
			break;
    22a8:	90                   	nop
    deleteClickable(&cm.left_click, initRect(0, 0, 800, 600));
    addWndEvent(&cm);//添加cm到窗口事件

    Initialize(context);

    while (isRun) {
    22a9:	a1 f8 e6 00 00       	mov    0xe6f8,%eax
    22ae:	85 c0                	test   %eax,%eax
    22b0:	0f 85 b5 fa ff ff    	jne    1d6b <main+0x28d>
			break;
		default:
			break;
		}
    }
    free_context(&context, winid);
    22b6:	8b 45 d4             	mov    -0x2c(%ebp),%eax
    22b9:	89 44 24 04          	mov    %eax,0x4(%esp)
    22bd:	8d 45 98             	lea    -0x68(%ebp),%eax
    22c0:	89 04 24             	mov    %eax,(%esp)
    22c3:	e8 88 00 00 00       	call   2350 <free_context>
    exit();
    22c8:	e8 8d 1e 00 00       	call   415a <exit>

000022cd <init_context>:
#include "stat.h"
#include "user.h"
#include "drawingAPI.h"

int init_context(struct Context* context_ptr, int width, int height)
{
    22cd:	55                   	push   %ebp
    22ce:	89 e5                	mov    %esp,%ebp
    22d0:	83 ec 18             	sub    $0x18,%esp
    context_ptr->width = width;
    22d3:	8b 45 08             	mov    0x8(%ebp),%eax
    22d6:	8b 55 0c             	mov    0xc(%ebp),%edx
    22d9:	89 50 04             	mov    %edx,0x4(%eax)
    context_ptr->height = height;
    22dc:	8b 45 08             	mov    0x8(%ebp),%eax
    22df:	8b 55 10             	mov    0x10(%ebp),%edx
    22e2:	89 50 08             	mov    %edx,0x8(%eax)
    context_ptr->addr = (unsigned short*)malloc(sizeof(unsigned short) * width * height);
    22e5:	8b 55 0c             	mov    0xc(%ebp),%edx
    22e8:	8b 45 10             	mov    0x10(%ebp),%eax
    22eb:	0f af c2             	imul   %edx,%eax
    22ee:	01 c0                	add    %eax,%eax
    22f0:	89 04 24             	mov    %eax,(%esp)
    22f3:	e8 36 23 00 00       	call   462e <malloc>
    22f8:	8b 55 08             	mov    0x8(%ebp),%edx
    22fb:	89 02                	mov    %eax,(%edx)
    memset(context_ptr->addr, 0, sizeof(unsigned short) * width * height);
    22fd:	8b 55 0c             	mov    0xc(%ebp),%edx
    2300:	8b 45 10             	mov    0x10(%ebp),%eax
    2303:	0f af c2             	imul   %edx,%eax
    2306:	8d 14 00             	lea    (%eax,%eax,1),%edx
    2309:	8b 45 08             	mov    0x8(%ebp),%eax
    230c:	8b 00                	mov    (%eax),%eax
    230e:	89 54 24 08          	mov    %edx,0x8(%esp)
    2312:	c7 44 24 04 00 00 00 	movl   $0x0,0x4(%esp)
    2319:	00 
    231a:	89 04 24             	mov    %eax,(%esp)
    231d:	e8 8b 1c 00 00       	call   3fad <memset>
    initializeASCII();
    2322:	e8 93 01 00 00       	call   24ba <initializeASCII>
    initializeGBK();
    2327:	e8 17 03 00 00       	call   2643 <initializeGBK>
    return createWindow(0, 0, width, height);
    232c:	8b 45 10             	mov    0x10(%ebp),%eax
    232f:	89 44 24 0c          	mov    %eax,0xc(%esp)
    2333:	8b 45 0c             	mov    0xc(%ebp),%eax
    2336:	89 44 24 08          	mov    %eax,0x8(%esp)
    233a:	c7 44 24 04 00 00 00 	movl   $0x0,0x4(%esp)
    2341:	00 
    2342:	c7 04 24 00 00 00 00 	movl   $0x0,(%esp)
    2349:	e8 b4 1e 00 00       	call   4202 <createWindow>
}
    234e:	c9                   	leave  
    234f:	c3                   	ret    

00002350 <free_context>:

void free_context(struct Context* context_ptr, int winid)
{
    2350:	55                   	push   %ebp
    2351:	89 e5                	mov    %esp,%ebp
    2353:	83 ec 18             	sub    $0x18,%esp
    free(context_ptr->addr);
    2356:	8b 45 08             	mov    0x8(%ebp),%eax
    2359:	8b 00                	mov    (%eax),%eax
    235b:	89 04 24             	mov    %eax,(%esp)
    235e:	e8 92 21 00 00       	call   44f5 <free>
    freeASCII();
    2363:	e8 c6 02 00 00       	call   262e <freeASCII>
    freeGBK();
    2368:	e8 7e 03 00 00       	call   26eb <freeGBK>
    destroyWindow(winid);
    236d:	8b 45 0c             	mov    0xc(%ebp),%eax
    2370:	89 04 24             	mov    %eax,(%esp)
    2373:	e8 92 1e 00 00       	call   420a <destroyWindow>
}
    2378:	c9                   	leave  
    2379:	c3                   	ret    

0000237a <draw_point>:
*             then do nothing!
*/

void
draw_point(struct Context c, unsigned int x, unsigned int y, unsigned short color)
{
    237a:	55                   	push   %ebp
    237b:	89 e5                	mov    %esp,%ebp
    237d:	83 ec 04             	sub    $0x4,%esp
    2380:	8b 45 1c             	mov    0x1c(%ebp),%eax
    2383:	66 89 45 fc          	mov    %ax,-0x4(%ebp)
  if(x >= c.width)
    2387:	8b 45 0c             	mov    0xc(%ebp),%eax
    238a:	3b 45 14             	cmp    0x14(%ebp),%eax
    238d:	77 02                	ja     2391 <draw_point+0x17>
    return;
    238f:	eb 26                	jmp    23b7 <draw_point+0x3d>
  if(y >= c.height)
    2391:	8b 45 10             	mov    0x10(%ebp),%eax
    2394:	3b 45 18             	cmp    0x18(%ebp),%eax
    2397:	77 02                	ja     239b <draw_point+0x21>
    return;
    2399:	eb 1c                	jmp    23b7 <draw_point+0x3d>
  c.addr[y*c.width+x] = color;
    239b:	8b 55 08             	mov    0x8(%ebp),%edx
    239e:	8b 45 0c             	mov    0xc(%ebp),%eax
    23a1:	0f af 45 18          	imul   0x18(%ebp),%eax
    23a5:	89 c1                	mov    %eax,%ecx
    23a7:	8b 45 14             	mov    0x14(%ebp),%eax
    23aa:	01 c8                	add    %ecx,%eax
    23ac:	01 c0                	add    %eax,%eax
    23ae:	01 c2                	add    %eax,%edx
    23b0:	0f b7 45 fc          	movzwl -0x4(%ebp),%eax
    23b4:	66 89 02             	mov    %ax,(%edx)
}
    23b7:	c9                   	leave  
    23b8:	c3                   	ret    

000023b9 <fill_rect>:
/*
*fill_rect: set a rect area with a certain color
*/
void
fill_rect(struct Context c, unsigned int bx, unsigned int by, unsigned int width, unsigned int height, unsigned short color)
{
    23b9:	55                   	push   %ebp
    23ba:	89 e5                	mov    %esp,%ebp
    23bc:	83 ec 2c             	sub    $0x2c,%esp
    23bf:	8b 45 24             	mov    0x24(%ebp),%eax
    23c2:	66 89 45 ec          	mov    %ax,-0x14(%ebp)
	int x, y;
	int mx = c.width < bx + width ? c.width : bx + width;
    23c6:	8b 45 1c             	mov    0x1c(%ebp),%eax
    23c9:	8b 55 14             	mov    0x14(%ebp),%edx
    23cc:	01 c2                	add    %eax,%edx
    23ce:	8b 45 0c             	mov    0xc(%ebp),%eax
    23d1:	39 c2                	cmp    %eax,%edx
    23d3:	0f 46 c2             	cmovbe %edx,%eax
    23d6:	89 45 f4             	mov    %eax,-0xc(%ebp)
	int my = c.height < by + height ? c.height : by + height;
    23d9:	8b 45 20             	mov    0x20(%ebp),%eax
    23dc:	8b 55 18             	mov    0x18(%ebp),%edx
    23df:	01 c2                	add    %eax,%edx
    23e1:	8b 45 10             	mov    0x10(%ebp),%eax
    23e4:	39 c2                	cmp    %eax,%edx
    23e6:	0f 46 c2             	cmovbe %edx,%eax
    23e9:	89 45 f0             	mov    %eax,-0x10(%ebp)
	for (y = by; y < my; y++)
    23ec:	8b 45 18             	mov    0x18(%ebp),%eax
    23ef:	89 45 f8             	mov    %eax,-0x8(%ebp)
    23f2:	eb 47                	jmp    243b <fill_rect+0x82>
	{
		for (x = bx; x < mx; x++)
    23f4:	8b 45 14             	mov    0x14(%ebp),%eax
    23f7:	89 45 fc             	mov    %eax,-0x4(%ebp)
    23fa:	eb 33                	jmp    242f <fill_rect+0x76>
		{
			draw_point(c, x, y, color);
    23fc:	0f b7 4d ec          	movzwl -0x14(%ebp),%ecx
    2400:	8b 55 f8             	mov    -0x8(%ebp),%edx
    2403:	8b 45 fc             	mov    -0x4(%ebp),%eax
    2406:	89 4c 24 14          	mov    %ecx,0x14(%esp)
    240a:	89 54 24 10          	mov    %edx,0x10(%esp)
    240e:	89 44 24 0c          	mov    %eax,0xc(%esp)
    2412:	8b 45 08             	mov    0x8(%ebp),%eax
    2415:	89 04 24             	mov    %eax,(%esp)
    2418:	8b 45 0c             	mov    0xc(%ebp),%eax
    241b:	89 44 24 04          	mov    %eax,0x4(%esp)
    241f:	8b 45 10             	mov    0x10(%ebp),%eax
    2422:	89 44 24 08          	mov    %eax,0x8(%esp)
    2426:	e8 4f ff ff ff       	call   237a <draw_point>
	int x, y;
	int mx = c.width < bx + width ? c.width : bx + width;
	int my = c.height < by + height ? c.height : by + height;
	for (y = by; y < my; y++)
	{
		for (x = bx; x < mx; x++)
    242b:	83 45 fc 01          	addl   $0x1,-0x4(%ebp)
    242f:	8b 45 fc             	mov    -0x4(%ebp),%eax
    2432:	3b 45 f4             	cmp    -0xc(%ebp),%eax
    2435:	7c c5                	jl     23fc <fill_rect+0x43>
fill_rect(struct Context c, unsigned int bx, unsigned int by, unsigned int width, unsigned int height, unsigned short color)
{
	int x, y;
	int mx = c.width < bx + width ? c.width : bx + width;
	int my = c.height < by + height ? c.height : by + height;
	for (y = by; y < my; y++)
    2437:	83 45 f8 01          	addl   $0x1,-0x8(%ebp)
    243b:	8b 45 f8             	mov    -0x8(%ebp),%eax
    243e:	3b 45 f0             	cmp    -0x10(%ebp),%eax
    2441:	7c b1                	jl     23f4 <fill_rect+0x3b>
		for (x = bx; x < mx; x++)
		{
			draw_point(c, x, y, color);
		}
	}
}
    2443:	c9                   	leave  
    2444:	c3                   	ret    

00002445 <printBinary>:

void printBinary(char c)
{
    2445:	55                   	push   %ebp
    2446:	89 e5                	mov    %esp,%ebp
    2448:	83 ec 28             	sub    $0x28,%esp
    244b:	8b 45 08             	mov    0x8(%ebp),%eax
    244e:	88 45 e4             	mov    %al,-0x1c(%ebp)
	int i;
	for (i = 0; i < 8; i++)
    2451:	c7 45 f4 00 00 00 00 	movl   $0x0,-0xc(%ebp)
    2458:	eb 44                	jmp    249e <printBinary+0x59>
	{
		if(((c << i) & 0x80) != 0)
    245a:	0f be 55 e4          	movsbl -0x1c(%ebp),%edx
    245e:	8b 45 f4             	mov    -0xc(%ebp),%eax
    2461:	89 c1                	mov    %eax,%ecx
    2463:	d3 e2                	shl    %cl,%edx
    2465:	89 d0                	mov    %edx,%eax
    2467:	25 80 00 00 00       	and    $0x80,%eax
    246c:	85 c0                	test   %eax,%eax
    246e:	74 16                	je     2486 <printBinary+0x41>
		{
			printf(0, "1");
    2470:	c7 44 24 04 d0 ab 00 	movl   $0xabd0,0x4(%esp)
    2477:	00 
    2478:	c7 04 24 00 00 00 00 	movl   $0x0,(%esp)
    247f:	e8 be 1e 00 00       	call   4342 <printf>
    2484:	eb 14                	jmp    249a <printBinary+0x55>
		}
		else
		{
			printf(0, "0");
    2486:	c7 44 24 04 d2 ab 00 	movl   $0xabd2,0x4(%esp)
    248d:	00 
    248e:	c7 04 24 00 00 00 00 	movl   $0x0,(%esp)
    2495:	e8 a8 1e 00 00       	call   4342 <printf>
}

void printBinary(char c)
{
	int i;
	for (i = 0; i < 8; i++)
    249a:	83 45 f4 01          	addl   $0x1,-0xc(%ebp)
    249e:	83 7d f4 07          	cmpl   $0x7,-0xc(%ebp)
    24a2:	7e b6                	jle    245a <printBinary+0x15>
		{
			printf(0, "0");
		}
	}

	printf(0, "\n");
    24a4:	c7 44 24 04 d4 ab 00 	movl   $0xabd4,0x4(%esp)
    24ab:	00 
    24ac:	c7 04 24 00 00 00 00 	movl   $0x0,(%esp)
    24b3:	e8 8a 1e 00 00       	call   4342 <printf>
}
    24b8:	c9                   	leave  
    24b9:	c3                   	ret    

000024ba <initializeASCII>:
char buf[512];
//hankaku是一个数组，将hankaku.txt文件中的每一行转化成一个8位整数（unsigned short）
//每16个整数可以代表一个字符
unsigned char *hankaku;
void initializeASCII()
{
    24ba:	55                   	push   %ebp
    24bb:	89 e5                	mov    %esp,%ebp
    24bd:	56                   	push   %esi
    24be:	53                   	push   %ebx
    24bf:	83 ec 30             	sub    $0x30,%esp

	int fd, n, i;
	int x, y;
	printf(0,"initialzing ASCII\n");
    24c2:	c7 44 24 04 d6 ab 00 	movl   $0xabd6,0x4(%esp)
    24c9:	00 
    24ca:	c7 04 24 00 00 00 00 	movl   $0x0,(%esp)
    24d1:	e8 6c 1e 00 00       	call   4342 <printf>
	//打开hankaku.txt文件
	if((fd = open(HANKAKU, 0)) < 0){
    24d6:	c7 44 24 04 00 00 00 	movl   $0x0,0x4(%esp)
    24dd:	00 
    24de:	c7 04 24 e9 ab 00 00 	movl   $0xabe9,(%esp)
    24e5:	e8 b0 1c 00 00       	call   419a <open>
    24ea:	89 45 e8             	mov    %eax,-0x18(%ebp)
    24ed:	83 7d e8 00          	cmpl   $0x0,-0x18(%ebp)
    24f1:	79 21                	jns    2514 <initializeASCII+0x5a>
	  printf(0,"cannot open %s\n", HANKAKU);
    24f3:	c7 44 24 08 e9 ab 00 	movl   $0xabe9,0x8(%esp)
    24fa:	00 
    24fb:	c7 44 24 04 f5 ab 00 	movl   $0xabf5,0x4(%esp)
    2502:	00 
    2503:	c7 04 24 00 00 00 00 	movl   $0x0,(%esp)
    250a:	e8 33 1e 00 00       	call   4342 <printf>
	  return;
    250f:	e9 13 01 00 00       	jmp    2627 <initializeASCII+0x16d>
	}
	//申请hankaku数组
	hankaku = malloc(ASCII_NUM*ASCII_HEIGHT);
    2514:	c7 04 24 00 10 00 00 	movl   $0x1000,(%esp)
    251b:	e8 0e 21 00 00       	call   462e <malloc>
    2520:	a3 c0 1b 01 00       	mov    %eax,0x11bc0
	for (i = 0; i < ASCII_NUM; i++)
    2525:	c7 45 f4 00 00 00 00 	movl   $0x0,-0xc(%ebp)
    252c:	eb 12                	jmp    2540 <initializeASCII+0x86>
	{
		hankaku[i] = 0;
    252e:	8b 15 c0 1b 01 00    	mov    0x11bc0,%edx
    2534:	8b 45 f4             	mov    -0xc(%ebp),%eax
    2537:	01 d0                	add    %edx,%eax
    2539:	c6 00 00             	movb   $0x0,(%eax)
	  printf(0,"cannot open %s\n", HANKAKU);
	  return;
	}
	//申请hankaku数组
	hankaku = malloc(ASCII_NUM*ASCII_HEIGHT);
	for (i = 0; i < ASCII_NUM; i++)
    253c:	83 45 f4 01          	addl   $0x1,-0xc(%ebp)
    2540:	81 7d f4 ff 00 00 00 	cmpl   $0xff,-0xc(%ebp)
    2547:	7e e5                	jle    252e <initializeASCII+0x74>

	//不断读取文件，如果读到的字符是“*/."，就按顺序记录到hankaku数组中
	//y表示当前记录到第几行（对应于hankaku数组里的第几个数），x表示当前记录到第几列
	//如果当前字符是"*",则对应第y个数第x位置为1
	//每当x == ASCII_WIDTH，x重新置为0, y++
	x = 0;
    2549:	c7 45 f0 00 00 00 00 	movl   $0x0,-0x10(%ebp)
	y = 0;
    2550:	c7 45 ec 00 00 00 00 	movl   $0x0,-0x14(%ebp)
	while((n = read(fd, buf, sizeof(buf))) > 0)
    2557:	e9 84 00 00 00       	jmp    25e0 <initializeASCII+0x126>
	{
		for (i = 0; i < n; i++){
    255c:	c7 45 f4 00 00 00 00 	movl   $0x0,-0xc(%ebp)
    2563:	eb 73                	jmp    25d8 <initializeASCII+0x11e>
			//printf(0,"%c, %d", buf[i], i);
			if (buf[i] == '*' || buf[i] == '.')
    2565:	8b 45 f4             	mov    -0xc(%ebp),%eax
    2568:	05 e0 1b 01 00       	add    $0x11be0,%eax
    256d:	0f b6 00             	movzbl (%eax),%eax
    2570:	3c 2a                	cmp    $0x2a,%al
    2572:	74 0f                	je     2583 <initializeASCII+0xc9>
    2574:	8b 45 f4             	mov    -0xc(%ebp),%eax
    2577:	05 e0 1b 01 00       	add    $0x11be0,%eax
    257c:	0f b6 00             	movzbl (%eax),%eax
    257f:	3c 2e                	cmp    $0x2e,%al
    2581:	75 51                	jne    25d4 <initializeASCII+0x11a>
			{
				if (buf[i] == '*')
    2583:	8b 45 f4             	mov    -0xc(%ebp),%eax
    2586:	05 e0 1b 01 00       	add    $0x11be0,%eax
    258b:	0f b6 00             	movzbl (%eax),%eax
    258e:	3c 2a                	cmp    $0x2a,%al
    2590:	75 2d                	jne    25bf <initializeASCII+0x105>
				{
					hankaku[y] |= (0x80 >> x);
    2592:	8b 15 c0 1b 01 00    	mov    0x11bc0,%edx
    2598:	8b 45 ec             	mov    -0x14(%ebp),%eax
    259b:	01 c2                	add    %eax,%edx
    259d:	8b 0d c0 1b 01 00    	mov    0x11bc0,%ecx
    25a3:	8b 45 ec             	mov    -0x14(%ebp),%eax
    25a6:	01 c8                	add    %ecx,%eax
    25a8:	0f b6 00             	movzbl (%eax),%eax
    25ab:	89 c3                	mov    %eax,%ebx
    25ad:	8b 45 f0             	mov    -0x10(%ebp),%eax
    25b0:	be 80 00 00 00       	mov    $0x80,%esi
    25b5:	89 c1                	mov    %eax,%ecx
    25b7:	d3 fe                	sar    %cl,%esi
    25b9:	89 f0                	mov    %esi,%eax
    25bb:	09 d8                	or     %ebx,%eax
    25bd:	88 02                	mov    %al,(%edx)
				}
				x ++;
    25bf:	83 45 f0 01          	addl   $0x1,-0x10(%ebp)
				if (x >= ASCII_WIDTH)
    25c3:	83 7d f0 07          	cmpl   $0x7,-0x10(%ebp)
    25c7:	7e 0b                	jle    25d4 <initializeASCII+0x11a>
				{
					x = 0;
    25c9:	c7 45 f0 00 00 00 00 	movl   $0x0,-0x10(%ebp)
					y ++;
    25d0:	83 45 ec 01          	addl   $0x1,-0x14(%ebp)
	//每当x == ASCII_WIDTH，x重新置为0, y++
	x = 0;
	y = 0;
	while((n = read(fd, buf, sizeof(buf))) > 0)
	{
		for (i = 0; i < n; i++){
    25d4:	83 45 f4 01          	addl   $0x1,-0xc(%ebp)
    25d8:	8b 45 f4             	mov    -0xc(%ebp),%eax
    25db:	3b 45 e4             	cmp    -0x1c(%ebp),%eax
    25de:	7c 85                	jl     2565 <initializeASCII+0xab>
	//y表示当前记录到第几行（对应于hankaku数组里的第几个数），x表示当前记录到第几列
	//如果当前字符是"*",则对应第y个数第x位置为1
	//每当x == ASCII_WIDTH，x重新置为0, y++
	x = 0;
	y = 0;
	while((n = read(fd, buf, sizeof(buf))) > 0)
    25e0:	c7 44 24 08 00 02 00 	movl   $0x200,0x8(%esp)
    25e7:	00 
    25e8:	c7 44 24 04 e0 1b 01 	movl   $0x11be0,0x4(%esp)
    25ef:	00 
    25f0:	8b 45 e8             	mov    -0x18(%ebp),%eax
    25f3:	89 04 24             	mov    %eax,(%esp)
    25f6:	e8 77 1b 00 00       	call   4172 <read>
    25fb:	89 45 e4             	mov    %eax,-0x1c(%ebp)
    25fe:	83 7d e4 00          	cmpl   $0x0,-0x1c(%ebp)
    2602:	0f 8f 54 ff ff ff    	jg     255c <initializeASCII+0xa2>

//	for (i = 0; i < ASCII_NUM * ASCII_HEIGHT; i++)
//	{
//		printBinary(hankaku[i]);
//	}
	printf(0,"initialzing ASCII complete!\n");
    2608:	c7 44 24 04 05 ac 00 	movl   $0xac05,0x4(%esp)
    260f:	00 
    2610:	c7 04 24 00 00 00 00 	movl   $0x0,(%esp)
    2617:	e8 26 1d 00 00       	call   4342 <printf>
	close(fd);
    261c:	8b 45 e8             	mov    -0x18(%ebp),%eax
    261f:	89 04 24             	mov    %eax,(%esp)
    2622:	e8 5b 1b 00 00       	call   4182 <close>
}
    2627:	83 c4 30             	add    $0x30,%esp
    262a:	5b                   	pop    %ebx
    262b:	5e                   	pop    %esi
    262c:	5d                   	pop    %ebp
    262d:	c3                   	ret    

0000262e <freeASCII>:

void freeASCII(){
    262e:	55                   	push   %ebp
    262f:	89 e5                	mov    %esp,%ebp
    2631:	83 ec 18             	sub    $0x18,%esp
	free(hankaku);
    2634:	a1 c0 1b 01 00       	mov    0x11bc0,%eax
    2639:	89 04 24             	mov    %eax,(%esp)
    263c:	e8 b4 1e 00 00       	call   44f5 <free>
}
    2641:	c9                   	leave  
    2642:	c3                   	ret    

00002643 <initializeGBK>:

struct File_Node fontFile;
void initializeGBK(){
    2643:	55                   	push   %ebp
    2644:	89 e5                	mov    %esp,%ebp
    2646:	83 ec 28             	sub    $0x28,%esp
	int fd;
	printf(0,"initialzing gbk\n");
    2649:	c7 44 24 04 22 ac 00 	movl   $0xac22,0x4(%esp)
    2650:	00 
    2651:	c7 04 24 00 00 00 00 	movl   $0x0,(%esp)
    2658:	e8 e5 1c 00 00       	call   4342 <printf>
	if((fd = open(HZK16, 0)) < 0){
    265d:	c7 44 24 04 00 00 00 	movl   $0x0,0x4(%esp)
    2664:	00 
    2665:	c7 04 24 33 ac 00 00 	movl   $0xac33,(%esp)
    266c:	e8 29 1b 00 00       	call   419a <open>
    2671:	89 45 f4             	mov    %eax,-0xc(%ebp)
    2674:	83 7d f4 00          	cmpl   $0x0,-0xc(%ebp)
    2678:	79 1e                	jns    2698 <initializeGBK+0x55>
		printf(0,"cannot open %s\n", HZK16);
    267a:	c7 44 24 08 33 ac 00 	movl   $0xac33,0x8(%esp)
    2681:	00 
    2682:	c7 44 24 04 f5 ab 00 	movl   $0xabf5,0x4(%esp)
    2689:	00 
    268a:	c7 04 24 00 00 00 00 	movl   $0x0,(%esp)
    2691:	e8 ac 1c 00 00       	call   4342 <printf>
		return;
    2696:	eb 51                	jmp    26e9 <initializeGBK+0xa6>
	}
	fontFile.buf = malloc(27000*sizeof(unsigned char));
    2698:	c7 04 24 78 69 00 00 	movl   $0x6978,(%esp)
    269f:	e8 8a 1f 00 00       	call   462e <malloc>
    26a4:	a3 c4 1b 01 00       	mov    %eax,0x11bc4
	fontFile.size = read(fd, fontFile.buf, 27000);
    26a9:	a1 c4 1b 01 00       	mov    0x11bc4,%eax
    26ae:	c7 44 24 08 78 69 00 	movl   $0x6978,0x8(%esp)
    26b5:	00 
    26b6:	89 44 24 04          	mov    %eax,0x4(%esp)
    26ba:	8b 45 f4             	mov    -0xc(%ebp),%eax
    26bd:	89 04 24             	mov    %eax,(%esp)
    26c0:	e8 ad 1a 00 00       	call   4172 <read>
    26c5:	a3 c8 1b 01 00       	mov    %eax,0x11bc8
	printf(0,"initialzing gbk complete!\n");
    26ca:	c7 44 24 04 3d ac 00 	movl   $0xac3d,0x4(%esp)
    26d1:	00 
    26d2:	c7 04 24 00 00 00 00 	movl   $0x0,(%esp)
    26d9:	e8 64 1c 00 00       	call   4342 <printf>
	close(fd);
    26de:	8b 45 f4             	mov    -0xc(%ebp),%eax
    26e1:	89 04 24             	mov    %eax,(%esp)
    26e4:	e8 99 1a 00 00       	call   4182 <close>
}
    26e9:	c9                   	leave  
    26ea:	c3                   	ret    

000026eb <freeGBK>:

void freeGBK(){
    26eb:	55                   	push   %ebp
    26ec:	89 e5                	mov    %esp,%ebp
    26ee:	83 ec 18             	sub    $0x18,%esp
	free(fontFile.buf);
    26f1:	a1 c4 1b 01 00       	mov    0x11bc4,%eax
    26f6:	89 04 24             	mov    %eax,(%esp)
    26f9:	e8 f7 1d 00 00       	call   44f5 <free>
}
    26fe:	c9                   	leave  
    26ff:	c3                   	ret    

00002700 <put_ascii>:

void put_ascii(struct Context c, unsigned char ascii, unsigned short colorNum, int x, int y)
{
    2700:	55                   	push   %ebp
    2701:	89 e5                	mov    %esp,%ebp
    2703:	53                   	push   %ebx
    2704:	83 ec 30             	sub    $0x30,%esp
    2707:	8b 55 14             	mov    0x14(%ebp),%edx
    270a:	8b 45 18             	mov    0x18(%ebp),%eax
    270d:	88 55 e8             	mov    %dl,-0x18(%ebp)
    2710:	66 89 45 e4          	mov    %ax,-0x1c(%ebp)
	int tmpX, tmpY;
	//printf(0, "put ascii: %c, color: %d\n", ascii, colorNum);
	for(tmpY = y; tmpY < y + 16; tmpY++) {
    2714:	8b 45 20             	mov    0x20(%ebp),%eax
    2717:	89 45 f4             	mov    %eax,-0xc(%ebp)
    271a:	eb 7f                	jmp    279b <put_ascii+0x9b>
		for(tmpX = 0; tmpX < 8; tmpX++) {
    271c:	c7 45 f8 00 00 00 00 	movl   $0x0,-0x8(%ebp)
    2723:	eb 6c                	jmp    2791 <put_ascii+0x91>
			if((((hankaku + (ascii * 16))[tmpY - y] << tmpX) & 0x80) == 0x80) {
    2725:	a1 c0 1b 01 00       	mov    0x11bc0,%eax
    272a:	0f b6 55 e8          	movzbl -0x18(%ebp),%edx
    272e:	c1 e2 04             	shl    $0x4,%edx
    2731:	89 d1                	mov    %edx,%ecx
    2733:	8b 55 20             	mov    0x20(%ebp),%edx
    2736:	8b 5d f4             	mov    -0xc(%ebp),%ebx
    2739:	29 d3                	sub    %edx,%ebx
    273b:	89 da                	mov    %ebx,%edx
    273d:	01 ca                	add    %ecx,%edx
    273f:	01 d0                	add    %edx,%eax
    2741:	0f b6 00             	movzbl (%eax),%eax
    2744:	0f b6 d0             	movzbl %al,%edx
    2747:	8b 45 f8             	mov    -0x8(%ebp),%eax
    274a:	89 c1                	mov    %eax,%ecx
    274c:	d3 e2                	shl    %cl,%edx
    274e:	89 d0                	mov    %edx,%eax
    2750:	25 80 00 00 00       	and    $0x80,%eax
    2755:	85 c0                	test   %eax,%eax
    2757:	74 34                	je     278d <put_ascii+0x8d>
				//printf(0, "x: %d, y: %d\n", x + tmpX, tmpY);
				draw_point(c, x + tmpX, tmpY, colorNum);
    2759:	0f b7 4d e4          	movzwl -0x1c(%ebp),%ecx
    275d:	8b 55 f4             	mov    -0xc(%ebp),%edx
    2760:	8b 45 f8             	mov    -0x8(%ebp),%eax
    2763:	8b 5d 1c             	mov    0x1c(%ebp),%ebx
    2766:	01 d8                	add    %ebx,%eax
    2768:	89 4c 24 14          	mov    %ecx,0x14(%esp)
    276c:	89 54 24 10          	mov    %edx,0x10(%esp)
    2770:	89 44 24 0c          	mov    %eax,0xc(%esp)
    2774:	8b 45 08             	mov    0x8(%ebp),%eax
    2777:	89 04 24             	mov    %eax,(%esp)
    277a:	8b 45 0c             	mov    0xc(%ebp),%eax
    277d:	89 44 24 04          	mov    %eax,0x4(%esp)
    2781:	8b 45 10             	mov    0x10(%ebp),%eax
    2784:	89 44 24 08          	mov    %eax,0x8(%esp)
    2788:	e8 ed fb ff ff       	call   237a <draw_point>
void put_ascii(struct Context c, unsigned char ascii, unsigned short colorNum, int x, int y)
{
	int tmpX, tmpY;
	//printf(0, "put ascii: %c, color: %d\n", ascii, colorNum);
	for(tmpY = y; tmpY < y + 16; tmpY++) {
		for(tmpX = 0; tmpX < 8; tmpX++) {
    278d:	83 45 f8 01          	addl   $0x1,-0x8(%ebp)
    2791:	83 7d f8 07          	cmpl   $0x7,-0x8(%ebp)
    2795:	7e 8e                	jle    2725 <put_ascii+0x25>

void put_ascii(struct Context c, unsigned char ascii, unsigned short colorNum, int x, int y)
{
	int tmpX, tmpY;
	//printf(0, "put ascii: %c, color: %d\n", ascii, colorNum);
	for(tmpY = y; tmpY < y + 16; tmpY++) {
    2797:	83 45 f4 01          	addl   $0x1,-0xc(%ebp)
    279b:	8b 45 20             	mov    0x20(%ebp),%eax
    279e:	83 c0 10             	add    $0x10,%eax
    27a1:	3b 45 f4             	cmp    -0xc(%ebp),%eax
    27a4:	0f 8f 72 ff ff ff    	jg     271c <put_ascii+0x1c>
				draw_point(c, x + tmpX, tmpY, colorNum);
				//sheet->buf[tmpY * sheet->width + x + tmpX] = colorNum;
			}
		}
	}
}
    27aa:	83 c4 30             	add    $0x30,%esp
    27ad:	5b                   	pop    %ebx
    27ae:	5d                   	pop    %ebp
    27af:	c3                   	ret    

000027b0 <put_gbk>:

void put_gbk(struct Context c, short gbk, unsigned short colorNum, int x, int y)
{
    27b0:	55                   	push   %ebp
    27b1:	89 e5                	mov    %esp,%ebp
    27b3:	53                   	push   %ebx
    27b4:	83 ec 34             	sub    $0x34,%esp
    27b7:	8b 55 14             	mov    0x14(%ebp),%edx
    27ba:	8b 45 18             	mov    0x18(%ebp),%eax
    27bd:	66 89 55 e8          	mov    %dx,-0x18(%ebp)
    27c1:	66 89 45 e4          	mov    %ax,-0x1c(%ebp)
	int tmpX, tmpY;
	unsigned int offset;
	unsigned char *hzk16Base;
	if((gbk & 0x00FF) >= 0xA1 && ((gbk >> 8) & 0x00FF) >= 0xA1) {
    27c5:	0f bf 45 e8          	movswl -0x18(%ebp),%eax
    27c9:	0f b6 c0             	movzbl %al,%eax
    27cc:	3d a0 00 00 00       	cmp    $0xa0,%eax
    27d1:	0f 8e 40 01 00 00    	jle    2917 <put_gbk+0x167>
    27d7:	0f b7 45 e8          	movzwl -0x18(%ebp),%eax
    27db:	66 c1 f8 08          	sar    $0x8,%ax
    27df:	98                   	cwtl   
    27e0:	0f b6 c0             	movzbl %al,%eax
    27e3:	3d a0 00 00 00       	cmp    $0xa0,%eax
    27e8:	0f 8e 29 01 00 00    	jle    2917 <put_gbk+0x167>
		hzk16Base = fontFile.buf;
    27ee:	a1 c4 1b 01 00       	mov    0x11bc4,%eax
    27f3:	89 45 ec             	mov    %eax,-0x14(%ebp)
		offset = (((gbk & 0x00FF) - 0xa1) * 94 + (((gbk >> 8) & 0x00FF) - 0xa1)) * 32;
    27f6:	0f bf 45 e8          	movswl -0x18(%ebp),%eax
    27fa:	0f b6 c0             	movzbl %al,%eax
    27fd:	2d a1 00 00 00       	sub    $0xa1,%eax
    2802:	6b c0 5e             	imul   $0x5e,%eax,%eax
    2805:	0f b7 55 e8          	movzwl -0x18(%ebp),%edx
    2809:	66 c1 fa 08          	sar    $0x8,%dx
    280d:	0f bf d2             	movswl %dx,%edx
    2810:	0f b6 d2             	movzbl %dl,%edx
    2813:	81 ea a1 00 00 00    	sub    $0xa1,%edx
    2819:	01 d0                	add    %edx,%eax
    281b:	c1 e0 05             	shl    $0x5,%eax
    281e:	89 45 f0             	mov    %eax,-0x10(%ebp)

		for(tmpY = y; tmpY < 16 + y; tmpY++) {
    2821:	8b 45 20             	mov    0x20(%ebp),%eax
    2824:	89 45 f4             	mov    %eax,-0xc(%ebp)
    2827:	e9 da 00 00 00       	jmp    2906 <put_gbk+0x156>
			for(tmpX = 0; tmpX < 8; tmpX++) {
    282c:	c7 45 f8 00 00 00 00 	movl   $0x0,-0x8(%ebp)
    2833:	eb 58                	jmp    288d <put_gbk+0xdd>
				if(((hzk16Base[offset] << tmpX) & 0x80) == 0x80) {
    2835:	8b 45 f0             	mov    -0x10(%ebp),%eax
    2838:	8b 55 ec             	mov    -0x14(%ebp),%edx
    283b:	01 d0                	add    %edx,%eax
    283d:	0f b6 00             	movzbl (%eax),%eax
    2840:	0f b6 d0             	movzbl %al,%edx
    2843:	8b 45 f8             	mov    -0x8(%ebp),%eax
    2846:	89 c1                	mov    %eax,%ecx
    2848:	d3 e2                	shl    %cl,%edx
    284a:	89 d0                	mov    %edx,%eax
    284c:	25 80 00 00 00       	and    $0x80,%eax
    2851:	85 c0                	test   %eax,%eax
    2853:	74 34                	je     2889 <put_gbk+0xd9>
					draw_point(c, x + tmpX, tmpY, colorNum);
    2855:	0f b7 4d e4          	movzwl -0x1c(%ebp),%ecx
    2859:	8b 55 f4             	mov    -0xc(%ebp),%edx
    285c:	8b 45 f8             	mov    -0x8(%ebp),%eax
    285f:	8b 5d 1c             	mov    0x1c(%ebp),%ebx
    2862:	01 d8                	add    %ebx,%eax
    2864:	89 4c 24 14          	mov    %ecx,0x14(%esp)
    2868:	89 54 24 10          	mov    %edx,0x10(%esp)
    286c:	89 44 24 0c          	mov    %eax,0xc(%esp)
    2870:	8b 45 08             	mov    0x8(%ebp),%eax
    2873:	89 04 24             	mov    %eax,(%esp)
    2876:	8b 45 0c             	mov    0xc(%ebp),%eax
    2879:	89 44 24 04          	mov    %eax,0x4(%esp)
    287d:	8b 45 10             	mov    0x10(%ebp),%eax
    2880:	89 44 24 08          	mov    %eax,0x8(%esp)
    2884:	e8 f1 fa ff ff       	call   237a <draw_point>
	if((gbk & 0x00FF) >= 0xA1 && ((gbk >> 8) & 0x00FF) >= 0xA1) {
		hzk16Base = fontFile.buf;
		offset = (((gbk & 0x00FF) - 0xa1) * 94 + (((gbk >> 8) & 0x00FF) - 0xa1)) * 32;

		for(tmpY = y; tmpY < 16 + y; tmpY++) {
			for(tmpX = 0; tmpX < 8; tmpX++) {
    2889:	83 45 f8 01          	addl   $0x1,-0x8(%ebp)
    288d:	83 7d f8 07          	cmpl   $0x7,-0x8(%ebp)
    2891:	7e a2                	jle    2835 <put_gbk+0x85>
				if(((hzk16Base[offset] << tmpX) & 0x80) == 0x80) {
					draw_point(c, x + tmpX, tmpY, colorNum);
					//sheet->buf[tmpY * sheet->width + x + tmpX] = colorNum;
				}
			}
			offset++;
    2893:	83 45 f0 01          	addl   $0x1,-0x10(%ebp)
			for(tmpX = 0; tmpX < 8; tmpX++) {
    2897:	c7 45 f8 00 00 00 00 	movl   $0x0,-0x8(%ebp)
    289e:	eb 58                	jmp    28f8 <put_gbk+0x148>
				if(((hzk16Base[offset] << tmpX) & 0x80) == 0x80) {
    28a0:	8b 45 f0             	mov    -0x10(%ebp),%eax
    28a3:	8b 55 ec             	mov    -0x14(%ebp),%edx
    28a6:	01 d0                	add    %edx,%eax
    28a8:	0f b6 00             	movzbl (%eax),%eax
    28ab:	0f b6 d0             	movzbl %al,%edx
    28ae:	8b 45 f8             	mov    -0x8(%ebp),%eax
    28b1:	89 c1                	mov    %eax,%ecx
    28b3:	d3 e2                	shl    %cl,%edx
    28b5:	89 d0                	mov    %edx,%eax
    28b7:	25 80 00 00 00       	and    $0x80,%eax
    28bc:	85 c0                	test   %eax,%eax
    28be:	74 34                	je     28f4 <put_gbk+0x144>
					draw_point(c, x + tmpX, tmpY, colorNum);
    28c0:	0f b7 4d e4          	movzwl -0x1c(%ebp),%ecx
    28c4:	8b 55 f4             	mov    -0xc(%ebp),%edx
    28c7:	8b 45 f8             	mov    -0x8(%ebp),%eax
    28ca:	8b 5d 1c             	mov    0x1c(%ebp),%ebx
    28cd:	01 d8                	add    %ebx,%eax
    28cf:	89 4c 24 14          	mov    %ecx,0x14(%esp)
    28d3:	89 54 24 10          	mov    %edx,0x10(%esp)
    28d7:	89 44 24 0c          	mov    %eax,0xc(%esp)
    28db:	8b 45 08             	mov    0x8(%ebp),%eax
    28de:	89 04 24             	mov    %eax,(%esp)
    28e1:	8b 45 0c             	mov    0xc(%ebp),%eax
    28e4:	89 44 24 04          	mov    %eax,0x4(%esp)
    28e8:	8b 45 10             	mov    0x10(%ebp),%eax
    28eb:	89 44 24 08          	mov    %eax,0x8(%esp)
    28ef:	e8 86 fa ff ff       	call   237a <draw_point>
					draw_point(c, x + tmpX, tmpY, colorNum);
					//sheet->buf[tmpY * sheet->width + x + tmpX] = colorNum;
				}
			}
			offset++;
			for(tmpX = 0; tmpX < 8; tmpX++) {
    28f4:	83 45 f8 01          	addl   $0x1,-0x8(%ebp)
    28f8:	83 7d f8 07          	cmpl   $0x7,-0x8(%ebp)
    28fc:	7e a2                	jle    28a0 <put_gbk+0xf0>
				if(((hzk16Base[offset] << tmpX) & 0x80) == 0x80) {
					draw_point(c, x + tmpX, tmpY, colorNum);
					//sheet->buf[tmpY * sheet->width + x + tmpX + 8] = colorNum;
				}
			}
			offset++;
    28fe:	83 45 f0 01          	addl   $0x1,-0x10(%ebp)
	unsigned char *hzk16Base;
	if((gbk & 0x00FF) >= 0xA1 && ((gbk >> 8) & 0x00FF) >= 0xA1) {
		hzk16Base = fontFile.buf;
		offset = (((gbk & 0x00FF) - 0xa1) * 94 + (((gbk >> 8) & 0x00FF) - 0xa1)) * 32;

		for(tmpY = y; tmpY < 16 + y; tmpY++) {
    2902:	83 45 f4 01          	addl   $0x1,-0xc(%ebp)
    2906:	8b 45 20             	mov    0x20(%ebp),%eax
    2909:	83 c0 10             	add    $0x10,%eax
    290c:	3b 45 f4             	cmp    -0xc(%ebp),%eax
    290f:	0f 8f 17 ff ff ff    	jg     282c <put_gbk+0x7c>
void put_gbk(struct Context c, short gbk, unsigned short colorNum, int x, int y)
{
	int tmpX, tmpY;
	unsigned int offset;
	unsigned char *hzk16Base;
	if((gbk & 0x00FF) >= 0xA1 && ((gbk >> 8) & 0x00FF) >= 0xA1) {
    2915:	eb 7b                	jmp    2992 <put_gbk+0x1e2>
			}
			offset++;
		}
	}
	else {
		put_ascii(c, (gbk & 0x00FF), colorNum, x, y);
    2917:	0f b7 55 e4          	movzwl -0x1c(%ebp),%edx
    291b:	0f b7 45 e8          	movzwl -0x18(%ebp),%eax
    291f:	0f b6 c0             	movzbl %al,%eax
    2922:	8b 4d 20             	mov    0x20(%ebp),%ecx
    2925:	89 4c 24 18          	mov    %ecx,0x18(%esp)
    2929:	8b 4d 1c             	mov    0x1c(%ebp),%ecx
    292c:	89 4c 24 14          	mov    %ecx,0x14(%esp)
    2930:	89 54 24 10          	mov    %edx,0x10(%esp)
    2934:	89 44 24 0c          	mov    %eax,0xc(%esp)
    2938:	8b 45 08             	mov    0x8(%ebp),%eax
    293b:	89 04 24             	mov    %eax,(%esp)
    293e:	8b 45 0c             	mov    0xc(%ebp),%eax
    2941:	89 44 24 04          	mov    %eax,0x4(%esp)
    2945:	8b 45 10             	mov    0x10(%ebp),%eax
    2948:	89 44 24 08          	mov    %eax,0x8(%esp)
    294c:	e8 af fd ff ff       	call   2700 <put_ascii>
		put_ascii(c, ((gbk >> 8) & 0x00FF), colorNum, x + 8, y);
    2951:	8b 45 1c             	mov    0x1c(%ebp),%eax
    2954:	8d 58 08             	lea    0x8(%eax),%ebx
    2957:	0f b7 55 e4          	movzwl -0x1c(%ebp),%edx
    295b:	0f b7 45 e8          	movzwl -0x18(%ebp),%eax
    295f:	66 c1 f8 08          	sar    $0x8,%ax
    2963:	0f b6 c0             	movzbl %al,%eax
    2966:	8b 4d 20             	mov    0x20(%ebp),%ecx
    2969:	89 4c 24 18          	mov    %ecx,0x18(%esp)
    296d:	89 5c 24 14          	mov    %ebx,0x14(%esp)
    2971:	89 54 24 10          	mov    %edx,0x10(%esp)
    2975:	89 44 24 0c          	mov    %eax,0xc(%esp)
    2979:	8b 45 08             	mov    0x8(%ebp),%eax
    297c:	89 04 24             	mov    %eax,(%esp)
    297f:	8b 45 0c             	mov    0xc(%ebp),%eax
    2982:	89 44 24 04          	mov    %eax,0x4(%esp)
    2986:	8b 45 10             	mov    0x10(%ebp),%eax
    2989:	89 44 24 08          	mov    %eax,0x8(%esp)
    298d:	e8 6e fd ff ff       	call   2700 <put_ascii>
	}
}
    2992:	83 c4 34             	add    $0x34,%esp
    2995:	5b                   	pop    %ebx
    2996:	5d                   	pop    %ebp
    2997:	c3                   	ret    

00002998 <puts_str>:

void puts_str(struct Context c, char *str, unsigned short colorNum, int x, int y)
{
    2998:	55                   	push   %ebp
    2999:	89 e5                	mov    %esp,%ebp
    299b:	83 ec 38             	sub    $0x38,%esp
    299e:	8b 45 18             	mov    0x18(%ebp),%eax
    29a1:	66 89 45 e4          	mov    %ax,-0x1c(%ebp)
	//printf(0,"puts string : %s\n", str);
	int i = 0, xTmp;
    29a5:	c7 45 f4 00 00 00 00 	movl   $0x0,-0xc(%ebp)
	short wStr;
	uint rowLetterCnt;

	rowLetterCnt = strlen(str);
    29ac:	8b 45 14             	mov    0x14(%ebp),%eax
    29af:	89 04 24             	mov    %eax,(%esp)
    29b2:	e8 cf 15 00 00       	call   3f86 <strlen>
    29b7:	89 45 ec             	mov    %eax,-0x14(%ebp)
	for(i = 0, xTmp = x; i < rowLetterCnt;) {
    29ba:	c7 45 f4 00 00 00 00 	movl   $0x0,-0xc(%ebp)
    29c1:	8b 45 1c             	mov    0x1c(%ebp),%eax
    29c4:	89 45 f0             	mov    %eax,-0x10(%ebp)
    29c7:	eb 49                	jmp    2a12 <puts_str+0x7a>
		if(str[i] < 0xA1) {
			put_ascii(c, str[i], colorNum, xTmp, y);
    29c9:	0f b7 55 e4          	movzwl -0x1c(%ebp),%edx
    29cd:	8b 4d f4             	mov    -0xc(%ebp),%ecx
    29d0:	8b 45 14             	mov    0x14(%ebp),%eax
    29d3:	01 c8                	add    %ecx,%eax
    29d5:	0f b6 00             	movzbl (%eax),%eax
    29d8:	0f b6 c0             	movzbl %al,%eax
    29db:	8b 4d 20             	mov    0x20(%ebp),%ecx
    29de:	89 4c 24 18          	mov    %ecx,0x18(%esp)
    29e2:	8b 4d f0             	mov    -0x10(%ebp),%ecx
    29e5:	89 4c 24 14          	mov    %ecx,0x14(%esp)
    29e9:	89 54 24 10          	mov    %edx,0x10(%esp)
    29ed:	89 44 24 0c          	mov    %eax,0xc(%esp)
    29f1:	8b 45 08             	mov    0x8(%ebp),%eax
    29f4:	89 04 24             	mov    %eax,(%esp)
    29f7:	8b 45 0c             	mov    0xc(%ebp),%eax
    29fa:	89 44 24 04          	mov    %eax,0x4(%esp)
    29fe:	8b 45 10             	mov    0x10(%ebp),%eax
    2a01:	89 44 24 08          	mov    %eax,0x8(%esp)
    2a05:	e8 f6 fc ff ff       	call   2700 <put_ascii>
			xTmp += 8;
    2a0a:	83 45 f0 08          	addl   $0x8,-0x10(%ebp)
			i++;
    2a0e:	83 45 f4 01          	addl   $0x1,-0xc(%ebp)
	int i = 0, xTmp;
	short wStr;
	uint rowLetterCnt;

	rowLetterCnt = strlen(str);
	for(i = 0, xTmp = x; i < rowLetterCnt;) {
    2a12:	8b 45 f4             	mov    -0xc(%ebp),%eax
    2a15:	3b 45 ec             	cmp    -0x14(%ebp),%eax
    2a18:	72 af                	jb     29c9 <puts_str+0x31>
			put_gbk(c, wStr, colorNum, xTmp, y);
			xTmp += 16;
			i += 2;
		}
	}
}
    2a1a:	c9                   	leave  
    2a1b:	c3                   	ret    

00002a1c <_RGB16BIT565>:

int _RGB16BIT565(int r,int g,int b){
    2a1c:	55                   	push   %ebp
    2a1d:	89 e5                	mov    %esp,%ebp
	return ((b / 8)+((g / 4)<<5)+((r / 8)<<11));
    2a1f:	8b 45 10             	mov    0x10(%ebp),%eax
    2a22:	8d 50 07             	lea    0x7(%eax),%edx
    2a25:	85 c0                	test   %eax,%eax
    2a27:	0f 48 c2             	cmovs  %edx,%eax
    2a2a:	c1 f8 03             	sar    $0x3,%eax
    2a2d:	89 c2                	mov    %eax,%edx
    2a2f:	8b 45 0c             	mov    0xc(%ebp),%eax
    2a32:	8d 48 03             	lea    0x3(%eax),%ecx
    2a35:	85 c0                	test   %eax,%eax
    2a37:	0f 48 c1             	cmovs  %ecx,%eax
    2a3a:	c1 f8 02             	sar    $0x2,%eax
    2a3d:	c1 e0 05             	shl    $0x5,%eax
    2a40:	8d 0c 02             	lea    (%edx,%eax,1),%ecx
    2a43:	8b 45 08             	mov    0x8(%ebp),%eax
    2a46:	8d 50 07             	lea    0x7(%eax),%edx
    2a49:	85 c0                	test   %eax,%eax
    2a4b:	0f 48 c2             	cmovs  %edx,%eax
    2a4e:	c1 f8 03             	sar    $0x3,%eax
    2a51:	c1 e0 0b             	shl    $0xb,%eax
    2a54:	01 c8                	add    %ecx,%eax
}
    2a56:	5d                   	pop    %ebp
    2a57:	c3                   	ret    

00002a58 <draw_picture>:

void draw_picture(Context c, PICNODE pic, int x, int y)
{
    2a58:	55                   	push   %ebp
    2a59:	89 e5                	mov    %esp,%ebp
    2a5b:	53                   	push   %ebx
    2a5c:	83 ec 28             	sub    $0x28,%esp
	int i, j;
	unsigned short color;
	RGBQUAD rgb;
	for (i = 0; i < pic.height; i++)
    2a5f:	c7 45 f8 00 00 00 00 	movl   $0x0,-0x8(%ebp)
    2a66:	e9 b1 00 00 00       	jmp    2b1c <draw_picture+0xc4>
	{
		for (j = 0; j < pic.width; j++)
    2a6b:	c7 45 f4 00 00 00 00 	movl   $0x0,-0xc(%ebp)
    2a72:	e9 95 00 00 00       	jmp    2b0c <draw_picture+0xb4>
		{
			rgb = pic.data[i*pic.width+j];
    2a77:	8b 55 14             	mov    0x14(%ebp),%edx
    2a7a:	8b 45 18             	mov    0x18(%ebp),%eax
    2a7d:	0f af 45 f8          	imul   -0x8(%ebp),%eax
    2a81:	89 c1                	mov    %eax,%ecx
    2a83:	8b 45 f4             	mov    -0xc(%ebp),%eax
    2a86:	01 c8                	add    %ecx,%eax
    2a88:	c1 e0 02             	shl    $0x2,%eax
    2a8b:	01 d0                	add    %edx,%eax
    2a8d:	8b 00                	mov    (%eax),%eax
    2a8f:	89 45 ee             	mov    %eax,-0x12(%ebp)
			if (rgb.rgbReserved == 1) continue;
    2a92:	0f b6 45 f1          	movzbl -0xf(%ebp),%eax
    2a96:	3c 01                	cmp    $0x1,%al
    2a98:	75 02                	jne    2a9c <draw_picture+0x44>
    2a9a:	eb 6c                	jmp    2b08 <draw_picture+0xb0>
			color = (unsigned short)_RGB16BIT565(rgb.rgbRed, rgb.rgbGreen, rgb.rgbBlue);
    2a9c:	0f b6 45 ee          	movzbl -0x12(%ebp),%eax
    2aa0:	0f b6 c8             	movzbl %al,%ecx
    2aa3:	0f b6 45 ef          	movzbl -0x11(%ebp),%eax
    2aa7:	0f b6 d0             	movzbl %al,%edx
    2aaa:	0f b6 45 f0          	movzbl -0x10(%ebp),%eax
    2aae:	0f b6 c0             	movzbl %al,%eax
    2ab1:	89 4c 24 08          	mov    %ecx,0x8(%esp)
    2ab5:	89 54 24 04          	mov    %edx,0x4(%esp)
    2ab9:	89 04 24             	mov    %eax,(%esp)
    2abc:	e8 5b ff ff ff       	call   2a1c <_RGB16BIT565>
    2ac1:	66 89 45 f2          	mov    %ax,-0xe(%ebp)
			draw_point(c, j + x, pic.height - 1 - i + y, color);
    2ac5:	0f b7 4d f2          	movzwl -0xe(%ebp),%ecx
    2ac9:	8b 45 1c             	mov    0x1c(%ebp),%eax
    2acc:	83 e8 01             	sub    $0x1,%eax
    2acf:	2b 45 f8             	sub    -0x8(%ebp),%eax
    2ad2:	89 c2                	mov    %eax,%edx
    2ad4:	8b 45 24             	mov    0x24(%ebp),%eax
    2ad7:	01 d0                	add    %edx,%eax
    2ad9:	89 c2                	mov    %eax,%edx
    2adb:	8b 45 20             	mov    0x20(%ebp),%eax
    2ade:	8b 5d f4             	mov    -0xc(%ebp),%ebx
    2ae1:	01 d8                	add    %ebx,%eax
    2ae3:	89 4c 24 14          	mov    %ecx,0x14(%esp)
    2ae7:	89 54 24 10          	mov    %edx,0x10(%esp)
    2aeb:	89 44 24 0c          	mov    %eax,0xc(%esp)
    2aef:	8b 45 08             	mov    0x8(%ebp),%eax
    2af2:	89 04 24             	mov    %eax,(%esp)
    2af5:	8b 45 0c             	mov    0xc(%ebp),%eax
    2af8:	89 44 24 04          	mov    %eax,0x4(%esp)
    2afc:	8b 45 10             	mov    0x10(%ebp),%eax
    2aff:	89 44 24 08          	mov    %eax,0x8(%esp)
    2b03:	e8 72 f8 ff ff       	call   237a <draw_point>
	int i, j;
	unsigned short color;
	RGBQUAD rgb;
	for (i = 0; i < pic.height; i++)
	{
		for (j = 0; j < pic.width; j++)
    2b08:	83 45 f4 01          	addl   $0x1,-0xc(%ebp)
    2b0c:	8b 45 18             	mov    0x18(%ebp),%eax
    2b0f:	3b 45 f4             	cmp    -0xc(%ebp),%eax
    2b12:	0f 8f 5f ff ff ff    	jg     2a77 <draw_picture+0x1f>
void draw_picture(Context c, PICNODE pic, int x, int y)
{
	int i, j;
	unsigned short color;
	RGBQUAD rgb;
	for (i = 0; i < pic.height; i++)
    2b18:	83 45 f8 01          	addl   $0x1,-0x8(%ebp)
    2b1c:	8b 45 1c             	mov    0x1c(%ebp),%eax
    2b1f:	3b 45 f8             	cmp    -0x8(%ebp),%eax
    2b22:	0f 8f 43 ff ff ff    	jg     2a6b <draw_picture+0x13>
			if (rgb.rgbReserved == 1) continue;
			color = (unsigned short)_RGB16BIT565(rgb.rgbRed, rgb.rgbGreen, rgb.rgbBlue);
			draw_point(c, j + x, pic.height - 1 - i + y, color);
		}
	}
}
    2b28:	83 c4 28             	add    $0x28,%esp
    2b2b:	5b                   	pop    %ebx
    2b2c:	5d                   	pop    %ebp
    2b2d:	c3                   	ret    

00002b2e <draw_line>:

void draw_line(Context c, int x0, int y0, int x1, int y1, unsigned short color)
{
    2b2e:	55                   	push   %ebp
    2b2f:	89 e5                	mov    %esp,%ebp
    2b31:	83 ec 3c             	sub    $0x3c,%esp
    2b34:	8b 45 24             	mov    0x24(%ebp),%eax
    2b37:	66 89 45 dc          	mov    %ax,-0x24(%ebp)
	int dx, dy, x, y, len, i;
	dx = x1 - x0;
    2b3b:	8b 45 14             	mov    0x14(%ebp),%eax
    2b3e:	8b 55 1c             	mov    0x1c(%ebp),%edx
    2b41:	29 c2                	sub    %eax,%edx
    2b43:	89 d0                	mov    %edx,%eax
    2b45:	89 45 fc             	mov    %eax,-0x4(%ebp)
	dy = y1 - y0;
    2b48:	8b 45 18             	mov    0x18(%ebp),%eax
    2b4b:	8b 55 20             	mov    0x20(%ebp),%edx
    2b4e:	29 c2                	sub    %eax,%edx
    2b50:	89 d0                	mov    %edx,%eax
    2b52:	89 45 f8             	mov    %eax,-0x8(%ebp)
	x = x0 << 10;
    2b55:	8b 45 14             	mov    0x14(%ebp),%eax
    2b58:	c1 e0 0a             	shl    $0xa,%eax
    2b5b:	89 45 f4             	mov    %eax,-0xc(%ebp)
	y = y0 << 10;
    2b5e:	8b 45 18             	mov    0x18(%ebp),%eax
    2b61:	c1 e0 0a             	shl    $0xa,%eax
    2b64:	89 45 f0             	mov    %eax,-0x10(%ebp)
	dx = (dx < 0) ? -dx : dx;
    2b67:	8b 45 fc             	mov    -0x4(%ebp),%eax
    2b6a:	c1 f8 1f             	sar    $0x1f,%eax
    2b6d:	31 45 fc             	xor    %eax,-0x4(%ebp)
    2b70:	29 45 fc             	sub    %eax,-0x4(%ebp)
	dy = (dy < 0) ? -dy : dy;
    2b73:	8b 45 f8             	mov    -0x8(%ebp),%eax
    2b76:	c1 f8 1f             	sar    $0x1f,%eax
    2b79:	31 45 f8             	xor    %eax,-0x8(%ebp)
    2b7c:	29 45 f8             	sub    %eax,-0x8(%ebp)
	if(dx >= dy) {
    2b7f:	8b 45 fc             	mov    -0x4(%ebp),%eax
    2b82:	3b 45 f8             	cmp    -0x8(%ebp),%eax
    2b85:	7c 57                	jl     2bde <draw_line+0xb0>
		len = dx + 1;
    2b87:	8b 45 fc             	mov    -0x4(%ebp),%eax
    2b8a:	83 c0 01             	add    $0x1,%eax
    2b8d:	89 45 ec             	mov    %eax,-0x14(%ebp)
		dx = (x1 > x0) ? 1024 : -1024;
    2b90:	8b 45 1c             	mov    0x1c(%ebp),%eax
    2b93:	3b 45 14             	cmp    0x14(%ebp),%eax
    2b96:	7e 07                	jle    2b9f <draw_line+0x71>
    2b98:	b8 00 04 00 00       	mov    $0x400,%eax
    2b9d:	eb 05                	jmp    2ba4 <draw_line+0x76>
    2b9f:	b8 00 fc ff ff       	mov    $0xfffffc00,%eax
    2ba4:	89 45 fc             	mov    %eax,-0x4(%ebp)
		dy = (y1 >= y0) ? (((y1 - y0 + 1) << 10) / len) : (((y1 - y0 - 1) << 10) / len);
    2ba7:	8b 45 20             	mov    0x20(%ebp),%eax
    2baa:	3b 45 18             	cmp    0x18(%ebp),%eax
    2bad:	7c 16                	jl     2bc5 <draw_line+0x97>
    2baf:	8b 45 18             	mov    0x18(%ebp),%eax
    2bb2:	8b 55 20             	mov    0x20(%ebp),%edx
    2bb5:	29 c2                	sub    %eax,%edx
    2bb7:	89 d0                	mov    %edx,%eax
    2bb9:	83 c0 01             	add    $0x1,%eax
    2bbc:	c1 e0 0a             	shl    $0xa,%eax
    2bbf:	99                   	cltd   
    2bc0:	f7 7d ec             	idivl  -0x14(%ebp)
    2bc3:	eb 14                	jmp    2bd9 <draw_line+0xab>
    2bc5:	8b 45 18             	mov    0x18(%ebp),%eax
    2bc8:	8b 55 20             	mov    0x20(%ebp),%edx
    2bcb:	29 c2                	sub    %eax,%edx
    2bcd:	89 d0                	mov    %edx,%eax
    2bcf:	83 e8 01             	sub    $0x1,%eax
    2bd2:	c1 e0 0a             	shl    $0xa,%eax
    2bd5:	99                   	cltd   
    2bd6:	f7 7d ec             	idivl  -0x14(%ebp)
    2bd9:	89 45 f8             	mov    %eax,-0x8(%ebp)
    2bdc:	eb 55                	jmp    2c33 <draw_line+0x105>
	}
	else {
		len = dy + 1;
    2bde:	8b 45 f8             	mov    -0x8(%ebp),%eax
    2be1:	83 c0 01             	add    $0x1,%eax
    2be4:	89 45 ec             	mov    %eax,-0x14(%ebp)
		dy = (y1 > y0) ? 1024 : -1024;
    2be7:	8b 45 20             	mov    0x20(%ebp),%eax
    2bea:	3b 45 18             	cmp    0x18(%ebp),%eax
    2bed:	7e 07                	jle    2bf6 <draw_line+0xc8>
    2bef:	b8 00 04 00 00       	mov    $0x400,%eax
    2bf4:	eb 05                	jmp    2bfb <draw_line+0xcd>
    2bf6:	b8 00 fc ff ff       	mov    $0xfffffc00,%eax
    2bfb:	89 45 f8             	mov    %eax,-0x8(%ebp)
		dx = (x1 >= x0) ? (((x1 - x0 + 1) << 10) / len) : (((x1 - x0 - 1) << 10) / len);
    2bfe:	8b 45 1c             	mov    0x1c(%ebp),%eax
    2c01:	3b 45 14             	cmp    0x14(%ebp),%eax
    2c04:	7c 16                	jl     2c1c <draw_line+0xee>
    2c06:	8b 45 14             	mov    0x14(%ebp),%eax
    2c09:	8b 55 1c             	mov    0x1c(%ebp),%edx
    2c0c:	29 c2                	sub    %eax,%edx
    2c0e:	89 d0                	mov    %edx,%eax
    2c10:	83 c0 01             	add    $0x1,%eax
    2c13:	c1 e0 0a             	shl    $0xa,%eax
    2c16:	99                   	cltd   
    2c17:	f7 7d ec             	idivl  -0x14(%ebp)
    2c1a:	eb 14                	jmp    2c30 <draw_line+0x102>
    2c1c:	8b 45 14             	mov    0x14(%ebp),%eax
    2c1f:	8b 55 1c             	mov    0x1c(%ebp),%edx
    2c22:	29 c2                	sub    %eax,%edx
    2c24:	89 d0                	mov    %edx,%eax
    2c26:	83 e8 01             	sub    $0x1,%eax
    2c29:	c1 e0 0a             	shl    $0xa,%eax
    2c2c:	99                   	cltd   
    2c2d:	f7 7d ec             	idivl  -0x14(%ebp)
    2c30:	89 45 fc             	mov    %eax,-0x4(%ebp)
	}
	for(i = 0; i < len; i++) {
    2c33:	c7 45 e8 00 00 00 00 	movl   $0x0,-0x18(%ebp)
    2c3a:	eb 47                	jmp    2c83 <draw_line+0x155>
		//printf(0, "draw line point: x=%d, y=%d\n", (x >> 10), (y >> 10));
		draw_point(c, (x >> 10), (y >> 10), color);
    2c3c:	0f b7 4d dc          	movzwl -0x24(%ebp),%ecx
    2c40:	8b 45 f0             	mov    -0x10(%ebp),%eax
    2c43:	c1 f8 0a             	sar    $0xa,%eax
    2c46:	89 c2                	mov    %eax,%edx
    2c48:	8b 45 f4             	mov    -0xc(%ebp),%eax
    2c4b:	c1 f8 0a             	sar    $0xa,%eax
    2c4e:	89 4c 24 14          	mov    %ecx,0x14(%esp)
    2c52:	89 54 24 10          	mov    %edx,0x10(%esp)
    2c56:	89 44 24 0c          	mov    %eax,0xc(%esp)
    2c5a:	8b 45 08             	mov    0x8(%ebp),%eax
    2c5d:	89 04 24             	mov    %eax,(%esp)
    2c60:	8b 45 0c             	mov    0xc(%ebp),%eax
    2c63:	89 44 24 04          	mov    %eax,0x4(%esp)
    2c67:	8b 45 10             	mov    0x10(%ebp),%eax
    2c6a:	89 44 24 08          	mov    %eax,0x8(%esp)
    2c6e:	e8 07 f7 ff ff       	call   237a <draw_point>
		y += dy;
    2c73:	8b 45 f8             	mov    -0x8(%ebp),%eax
    2c76:	01 45 f0             	add    %eax,-0x10(%ebp)
		x += dx;
    2c79:	8b 45 fc             	mov    -0x4(%ebp),%eax
    2c7c:	01 45 f4             	add    %eax,-0xc(%ebp)
	else {
		len = dy + 1;
		dy = (y1 > y0) ? 1024 : -1024;
		dx = (x1 >= x0) ? (((x1 - x0 + 1) << 10) / len) : (((x1 - x0 - 1) << 10) / len);
	}
	for(i = 0; i < len; i++) {
    2c7f:	83 45 e8 01          	addl   $0x1,-0x18(%ebp)
    2c83:	8b 45 e8             	mov    -0x18(%ebp),%eax
    2c86:	3b 45 ec             	cmp    -0x14(%ebp),%eax
    2c89:	7c b1                	jl     2c3c <draw_line+0x10e>
		//printf(0, "draw line point: x=%d, y=%d\n", (x >> 10), (y >> 10));
		draw_point(c, (x >> 10), (y >> 10), color);
		y += dy;
		x += dx;
	}
}
    2c8b:	c9                   	leave  
    2c8c:	c3                   	ret    

00002c8d <draw_window>:

void
draw_window(Context c, char *title)
{
    2c8d:	55                   	push   %ebp
    2c8e:	89 e5                	mov    %esp,%ebp
    2c90:	83 ec 38             	sub    $0x38,%esp
  PICNODE pic;
  draw_line(c, 0, 0, c.width - 1, 0, BORDERLINE_COLOR);
    2c93:	8b 45 0c             	mov    0xc(%ebp),%eax
    2c96:	83 e8 01             	sub    $0x1,%eax
    2c99:	c7 44 24 1c 00 00 00 	movl   $0x0,0x1c(%esp)
    2ca0:	00 
    2ca1:	c7 44 24 18 00 00 00 	movl   $0x0,0x18(%esp)
    2ca8:	00 
    2ca9:	89 44 24 14          	mov    %eax,0x14(%esp)
    2cad:	c7 44 24 10 00 00 00 	movl   $0x0,0x10(%esp)
    2cb4:	00 
    2cb5:	c7 44 24 0c 00 00 00 	movl   $0x0,0xc(%esp)
    2cbc:	00 
    2cbd:	8b 45 08             	mov    0x8(%ebp),%eax
    2cc0:	89 04 24             	mov    %eax,(%esp)
    2cc3:	8b 45 0c             	mov    0xc(%ebp),%eax
    2cc6:	89 44 24 04          	mov    %eax,0x4(%esp)
    2cca:	8b 45 10             	mov    0x10(%ebp),%eax
    2ccd:	89 44 24 08          	mov    %eax,0x8(%esp)
    2cd1:	e8 58 fe ff ff       	call   2b2e <draw_line>
  draw_line(c, c.width - 1, 0, c.width - 1, c.height - 1, BORDERLINE_COLOR);
    2cd6:	8b 45 10             	mov    0x10(%ebp),%eax
    2cd9:	8d 48 ff             	lea    -0x1(%eax),%ecx
    2cdc:	8b 45 0c             	mov    0xc(%ebp),%eax
    2cdf:	8d 50 ff             	lea    -0x1(%eax),%edx
    2ce2:	8b 45 0c             	mov    0xc(%ebp),%eax
    2ce5:	83 e8 01             	sub    $0x1,%eax
    2ce8:	c7 44 24 1c 00 00 00 	movl   $0x0,0x1c(%esp)
    2cef:	00 
    2cf0:	89 4c 24 18          	mov    %ecx,0x18(%esp)
    2cf4:	89 54 24 14          	mov    %edx,0x14(%esp)
    2cf8:	c7 44 24 10 00 00 00 	movl   $0x0,0x10(%esp)
    2cff:	00 
    2d00:	89 44 24 0c          	mov    %eax,0xc(%esp)
    2d04:	8b 45 08             	mov    0x8(%ebp),%eax
    2d07:	89 04 24             	mov    %eax,(%esp)
    2d0a:	8b 45 0c             	mov    0xc(%ebp),%eax
    2d0d:	89 44 24 04          	mov    %eax,0x4(%esp)
    2d11:	8b 45 10             	mov    0x10(%ebp),%eax
    2d14:	89 44 24 08          	mov    %eax,0x8(%esp)
    2d18:	e8 11 fe ff ff       	call   2b2e <draw_line>
  draw_line(c, c.width - 1, c.height - 1, 0, c.height - 1, BORDERLINE_COLOR);
    2d1d:	8b 45 10             	mov    0x10(%ebp),%eax
    2d20:	8d 48 ff             	lea    -0x1(%eax),%ecx
    2d23:	8b 45 10             	mov    0x10(%ebp),%eax
    2d26:	8d 50 ff             	lea    -0x1(%eax),%edx
    2d29:	8b 45 0c             	mov    0xc(%ebp),%eax
    2d2c:	83 e8 01             	sub    $0x1,%eax
    2d2f:	c7 44 24 1c 00 00 00 	movl   $0x0,0x1c(%esp)
    2d36:	00 
    2d37:	89 4c 24 18          	mov    %ecx,0x18(%esp)
    2d3b:	c7 44 24 14 00 00 00 	movl   $0x0,0x14(%esp)
    2d42:	00 
    2d43:	89 54 24 10          	mov    %edx,0x10(%esp)
    2d47:	89 44 24 0c          	mov    %eax,0xc(%esp)
    2d4b:	8b 45 08             	mov    0x8(%ebp),%eax
    2d4e:	89 04 24             	mov    %eax,(%esp)
    2d51:	8b 45 0c             	mov    0xc(%ebp),%eax
    2d54:	89 44 24 04          	mov    %eax,0x4(%esp)
    2d58:	8b 45 10             	mov    0x10(%ebp),%eax
    2d5b:	89 44 24 08          	mov    %eax,0x8(%esp)
    2d5f:	e8 ca fd ff ff       	call   2b2e <draw_line>
  draw_line(c, 0, c.height - 1, 0, 0, BORDERLINE_COLOR);
    2d64:	8b 45 10             	mov    0x10(%ebp),%eax
    2d67:	83 e8 01             	sub    $0x1,%eax
    2d6a:	c7 44 24 1c 00 00 00 	movl   $0x0,0x1c(%esp)
    2d71:	00 
    2d72:	c7 44 24 18 00 00 00 	movl   $0x0,0x18(%esp)
    2d79:	00 
    2d7a:	c7 44 24 14 00 00 00 	movl   $0x0,0x14(%esp)
    2d81:	00 
    2d82:	89 44 24 10          	mov    %eax,0x10(%esp)
    2d86:	c7 44 24 0c 00 00 00 	movl   $0x0,0xc(%esp)
    2d8d:	00 
    2d8e:	8b 45 08             	mov    0x8(%ebp),%eax
    2d91:	89 04 24             	mov    %eax,(%esp)
    2d94:	8b 45 0c             	mov    0xc(%ebp),%eax
    2d97:	89 44 24 04          	mov    %eax,0x4(%esp)
    2d9b:	8b 45 10             	mov    0x10(%ebp),%eax
    2d9e:	89 44 24 08          	mov    %eax,0x8(%esp)
    2da2:	e8 87 fd ff ff       	call   2b2e <draw_line>
  fill_rect(c, 1, 1, c.width - 2, BOTTOMBAR_HEIGHT, TOPBAR_COLOR);
    2da7:	8b 45 0c             	mov    0xc(%ebp),%eax
    2daa:	83 e8 02             	sub    $0x2,%eax
    2dad:	c7 44 24 1c cb 5a 00 	movl   $0x5acb,0x1c(%esp)
    2db4:	00 
    2db5:	c7 44 24 18 14 00 00 	movl   $0x14,0x18(%esp)
    2dbc:	00 
    2dbd:	89 44 24 14          	mov    %eax,0x14(%esp)
    2dc1:	c7 44 24 10 01 00 00 	movl   $0x1,0x10(%esp)
    2dc8:	00 
    2dc9:	c7 44 24 0c 01 00 00 	movl   $0x1,0xc(%esp)
    2dd0:	00 
    2dd1:	8b 45 08             	mov    0x8(%ebp),%eax
    2dd4:	89 04 24             	mov    %eax,(%esp)
    2dd7:	8b 45 0c             	mov    0xc(%ebp),%eax
    2dda:	89 44 24 04          	mov    %eax,0x4(%esp)
    2dde:	8b 45 10             	mov    0x10(%ebp),%eax
    2de1:	89 44 24 08          	mov    %eax,0x8(%esp)
    2de5:	e8 cf f5 ff ff       	call   23b9 <fill_rect>
  fill_rect(c, 1, c.height - 1 - BOTTOMBAR_HEIGHT, c.width - 2, BOTTOMBAR_HEIGHT, BOTTOMBAR_COLOR);
    2dea:	8b 45 0c             	mov    0xc(%ebp),%eax
    2ded:	83 e8 02             	sub    $0x2,%eax
    2df0:	89 c2                	mov    %eax,%edx
    2df2:	8b 45 10             	mov    0x10(%ebp),%eax
    2df5:	83 e8 15             	sub    $0x15,%eax
    2df8:	c7 44 24 1c cb 5a 00 	movl   $0x5acb,0x1c(%esp)
    2dff:	00 
    2e00:	c7 44 24 18 14 00 00 	movl   $0x14,0x18(%esp)
    2e07:	00 
    2e08:	89 54 24 14          	mov    %edx,0x14(%esp)
    2e0c:	89 44 24 10          	mov    %eax,0x10(%esp)
    2e10:	c7 44 24 0c 01 00 00 	movl   $0x1,0xc(%esp)
    2e17:	00 
    2e18:	8b 45 08             	mov    0x8(%ebp),%eax
    2e1b:	89 04 24             	mov    %eax,(%esp)
    2e1e:	8b 45 0c             	mov    0xc(%ebp),%eax
    2e21:	89 44 24 04          	mov    %eax,0x4(%esp)
    2e25:	8b 45 10             	mov    0x10(%ebp),%eax
    2e28:	89 44 24 08          	mov    %eax,0x8(%esp)
    2e2c:	e8 88 f5 ff ff       	call   23b9 <fill_rect>

  loadBitmap(&pic, "close.bmp");
    2e31:	c7 44 24 04 58 ac 00 	movl   $0xac58,0x4(%esp)
    2e38:	00 
    2e39:	8d 45 ec             	lea    -0x14(%ebp),%eax
    2e3c:	89 04 24             	mov    %eax,(%esp)
    2e3f:	e8 44 01 00 00       	call   2f88 <loadBitmap>
  draw_picture(c, pic, 3, 3);
    2e44:	c7 44 24 1c 03 00 00 	movl   $0x3,0x1c(%esp)
    2e4b:	00 
    2e4c:	c7 44 24 18 03 00 00 	movl   $0x3,0x18(%esp)
    2e53:	00 
    2e54:	8b 45 ec             	mov    -0x14(%ebp),%eax
    2e57:	89 44 24 0c          	mov    %eax,0xc(%esp)
    2e5b:	8b 45 f0             	mov    -0x10(%ebp),%eax
    2e5e:	89 44 24 10          	mov    %eax,0x10(%esp)
    2e62:	8b 45 f4             	mov    -0xc(%ebp),%eax
    2e65:	89 44 24 14          	mov    %eax,0x14(%esp)
    2e69:	8b 45 08             	mov    0x8(%ebp),%eax
    2e6c:	89 04 24             	mov    %eax,(%esp)
    2e6f:	8b 45 0c             	mov    0xc(%ebp),%eax
    2e72:	89 44 24 04          	mov    %eax,0x4(%esp)
    2e76:	8b 45 10             	mov    0x10(%ebp),%eax
    2e79:	89 44 24 08          	mov    %eax,0x8(%esp)
    2e7d:	e8 d6 fb ff ff       	call   2a58 <draw_picture>
  puts_str(c, title, TITLE_COLOR, TITLE_OFFSET_X, TITLE_OFFSET_Y);
    2e82:	c7 44 24 18 02 00 00 	movl   $0x2,0x18(%esp)
    2e89:	00 
    2e8a:	c7 44 24 14 19 00 00 	movl   $0x19,0x14(%esp)
    2e91:	00 
    2e92:	c7 44 24 10 ff ff 00 	movl   $0xffff,0x10(%esp)
    2e99:	00 
    2e9a:	8b 45 14             	mov    0x14(%ebp),%eax
    2e9d:	89 44 24 0c          	mov    %eax,0xc(%esp)
    2ea1:	8b 45 08             	mov    0x8(%ebp),%eax
    2ea4:	89 04 24             	mov    %eax,(%esp)
    2ea7:	8b 45 0c             	mov    0xc(%ebp),%eax
    2eaa:	89 44 24 04          	mov    %eax,0x4(%esp)
    2eae:	8b 45 10             	mov    0x10(%ebp),%eax
    2eb1:	89 44 24 08          	mov    %eax,0x8(%esp)
    2eb5:	e8 de fa ff ff       	call   2998 <puts_str>
  freepic(&pic);
    2eba:	8d 45 ec             	lea    -0x14(%ebp),%eax
    2ebd:	89 04 24             	mov    %eax,(%esp)
    2ec0:	e8 6f 06 00 00       	call   3534 <freepic>
}
    2ec5:	c9                   	leave  
    2ec6:	c3                   	ret    

00002ec7 <load_iconlist>:

void load_iconlist(ICON* iconlist, int len)
{
    2ec7:	55                   	push   %ebp
    2ec8:	89 e5                	mov    %esp,%ebp
    2eca:	83 ec 28             	sub    $0x28,%esp
	int i;
	for (i = 0; i < len; i++)
    2ecd:	c7 45 f4 00 00 00 00 	movl   $0x0,-0xc(%ebp)
    2ed4:	eb 29                	jmp    2eff <load_iconlist+0x38>
	{
	    loadBitmap(&(iconlist[i].pic), iconlist[i].name);
    2ed6:	8b 45 f4             	mov    -0xc(%ebp),%eax
    2ed9:	6b d0 34             	imul   $0x34,%eax,%edx
    2edc:	8b 45 08             	mov    0x8(%ebp),%eax
    2edf:	01 d0                	add    %edx,%eax
    2ee1:	8b 55 f4             	mov    -0xc(%ebp),%edx
    2ee4:	6b ca 34             	imul   $0x34,%edx,%ecx
    2ee7:	8b 55 08             	mov    0x8(%ebp),%edx
    2eea:	01 ca                	add    %ecx,%edx
    2eec:	83 c2 28             	add    $0x28,%edx
    2eef:	89 44 24 04          	mov    %eax,0x4(%esp)
    2ef3:	89 14 24             	mov    %edx,(%esp)
    2ef6:	e8 8d 00 00 00       	call   2f88 <loadBitmap>
}

void load_iconlist(ICON* iconlist, int len)
{
	int i;
	for (i = 0; i < len; i++)
    2efb:	83 45 f4 01          	addl   $0x1,-0xc(%ebp)
    2eff:	8b 45 f4             	mov    -0xc(%ebp),%eax
    2f02:	3b 45 0c             	cmp    0xc(%ebp),%eax
    2f05:	7c cf                	jl     2ed6 <load_iconlist+0xf>
	{
	    loadBitmap(&(iconlist[i].pic), iconlist[i].name);
	}
}
    2f07:	c9                   	leave  
    2f08:	c3                   	ret    

00002f09 <draw_iconlist>:
void draw_iconlist(Context c, ICON* iconlist, int len)
{
    2f09:	55                   	push   %ebp
    2f0a:	89 e5                	mov    %esp,%ebp
    2f0c:	53                   	push   %ebx
    2f0d:	83 ec 30             	sub    $0x30,%esp
    int i;
    for (i = 0; i < len; i++)
    2f10:	c7 45 f8 00 00 00 00 	movl   $0x0,-0x8(%ebp)
    2f17:	eb 61                	jmp    2f7a <draw_iconlist+0x71>
    {
        draw_picture(c, iconlist[i].pic, iconlist[i].position_x, iconlist[i].position_y);
    2f19:	8b 45 f8             	mov    -0x8(%ebp),%eax
    2f1c:	6b d0 34             	imul   $0x34,%eax,%edx
    2f1f:	8b 45 14             	mov    0x14(%ebp),%eax
    2f22:	01 d0                	add    %edx,%eax
    2f24:	8b 48 24             	mov    0x24(%eax),%ecx
    2f27:	8b 45 f8             	mov    -0x8(%ebp),%eax
    2f2a:	6b d0 34             	imul   $0x34,%eax,%edx
    2f2d:	8b 45 14             	mov    0x14(%ebp),%eax
    2f30:	01 d0                	add    %edx,%eax
    2f32:	8b 50 20             	mov    0x20(%eax),%edx
    2f35:	8b 45 f8             	mov    -0x8(%ebp),%eax
    2f38:	6b d8 34             	imul   $0x34,%eax,%ebx
    2f3b:	8b 45 14             	mov    0x14(%ebp),%eax
    2f3e:	01 d8                	add    %ebx,%eax
    2f40:	89 4c 24 1c          	mov    %ecx,0x1c(%esp)
    2f44:	89 54 24 18          	mov    %edx,0x18(%esp)
    2f48:	8b 50 28             	mov    0x28(%eax),%edx
    2f4b:	89 54 24 0c          	mov    %edx,0xc(%esp)
    2f4f:	8b 50 2c             	mov    0x2c(%eax),%edx
    2f52:	89 54 24 10          	mov    %edx,0x10(%esp)
    2f56:	8b 40 30             	mov    0x30(%eax),%eax
    2f59:	89 44 24 14          	mov    %eax,0x14(%esp)
    2f5d:	8b 45 08             	mov    0x8(%ebp),%eax
    2f60:	89 04 24             	mov    %eax,(%esp)
    2f63:	8b 45 0c             	mov    0xc(%ebp),%eax
    2f66:	89 44 24 04          	mov    %eax,0x4(%esp)
    2f6a:	8b 45 10             	mov    0x10(%ebp),%eax
    2f6d:	89 44 24 08          	mov    %eax,0x8(%esp)
    2f71:	e8 e2 fa ff ff       	call   2a58 <draw_picture>
	}
}
void draw_iconlist(Context c, ICON* iconlist, int len)
{
    int i;
    for (i = 0; i < len; i++)
    2f76:	83 45 f8 01          	addl   $0x1,-0x8(%ebp)
    2f7a:	8b 45 f8             	mov    -0x8(%ebp),%eax
    2f7d:	3b 45 18             	cmp    0x18(%ebp),%eax
    2f80:	7c 97                	jl     2f19 <draw_iconlist+0x10>
    {
        draw_picture(c, iconlist[i].pic, iconlist[i].position_x, iconlist[i].position_y);
    }
}
    2f82:	83 c4 30             	add    $0x30,%esp
    2f85:	5b                   	pop    %ebx
    2f86:	5d                   	pop    %ebp
    2f87:	c3                   	ret    

00002f88 <loadBitmap>:
void showRgbQuan(RGBQUAD* pRGB);
void showBmpHead(BITMAPFILEHEADER* pBmpHead);
void showBmpInforHead(BITMAPINFOHEADER* pBmpInforHead);

void loadBitmap(PICNODE *pic, char pic_name[])//加载bmp文件，pic为图片节点数组，pic_name为文件名字符串
{
    2f88:	55                   	push   %ebp
    2f89:	89 e5                	mov    %esp,%ebp
    2f8b:	81 ec a8 00 00 00    	sub    $0xa8,%esp
	BITMAPFILEHEADER bitHead;//定义文件头
	BITMAPINFOHEADER bitInfoHead;//定义信息头
	char *BmpFileHeader;//文件头字符串
	WORD *temp_WORD;
	DWORD *temp_DWORD;
	int fd, n, i, j, k, index = 0;//fd为文件描述符
    2f91:	c7 45 ec 00 00 00 00 	movl   $0x0,-0x14(%ebp)
	int width;
	int height;
    
    //打开bmp文件
	if ((fd = open(pic_name, 0)) < 0) {//打开文件
    2f98:	c7 44 24 04 00 00 00 	movl   $0x0,0x4(%esp)
    2f9f:	00 
    2fa0:	8b 45 0c             	mov    0xc(%ebp),%eax
    2fa3:	89 04 24             	mov    %eax,(%esp)
    2fa6:	e8 ef 11 00 00       	call   419a <open>
    2fab:	89 45 e8             	mov    %eax,-0x18(%ebp)
    2fae:	83 7d e8 00          	cmpl   $0x0,-0x18(%ebp)
    2fb2:	79 20                	jns    2fd4 <loadBitmap+0x4c>
		printf(0, "cannot open %s\n", pic_name);//打不开
    2fb4:	8b 45 0c             	mov    0xc(%ebp),%eax
    2fb7:	89 44 24 08          	mov    %eax,0x8(%esp)
    2fbb:	c7 44 24 04 64 ac 00 	movl   $0xac64,0x4(%esp)
    2fc2:	00 
    2fc3:	c7 04 24 00 00 00 00 	movl   $0x0,(%esp)
    2fca:	e8 73 13 00 00       	call   4342 <printf>
		return;
    2fcf:	e9 ef 02 00 00       	jmp    32c3 <loadBitmap+0x33b>
	}
	printf(0, "reading bitmap: %s\n", pic_name);//打得开
    2fd4:	8b 45 0c             	mov    0xc(%ebp),%eax
    2fd7:	89 44 24 08          	mov    %eax,0x8(%esp)
    2fdb:	c7 44 24 04 74 ac 00 	movl   $0xac74,0x4(%esp)
    2fe2:	00 
    2fe3:	c7 04 24 00 00 00 00 	movl   $0x0,(%esp)
    2fea:	e8 53 13 00 00       	call   4342 <printf>
    //打开bmp文件结束
    
    //读取文件头
	BmpFileHeader = (char *) malloc(14 * sizeof(char));//文件头字符串初始化，14个字符
    2fef:	c7 04 24 0e 00 00 00 	movl   $0xe,(%esp)
    2ff6:	e8 33 16 00 00       	call   462e <malloc>
    2ffb:	89 45 e4             	mov    %eax,-0x1c(%ebp)

    n = read(fd, BmpFileHeader, 14);//从文件中读取前14个字符到文件头字符串中
    2ffe:	c7 44 24 08 0e 00 00 	movl   $0xe,0x8(%esp)
    3005:	00 
    3006:	8b 45 e4             	mov    -0x1c(%ebp),%eax
    3009:	89 44 24 04          	mov    %eax,0x4(%esp)
    300d:	8b 45 e8             	mov    -0x18(%ebp),%eax
    3010:	89 04 24             	mov    %eax,(%esp)
    3013:	e8 5a 11 00 00       	call   4172 <read>
    3018:	89 45 e0             	mov    %eax,-0x20(%ebp)
	temp_WORD = (WORD*) (BmpFileHeader);
    301b:	8b 45 e4             	mov    -0x1c(%ebp),%eax
    301e:	89 45 dc             	mov    %eax,-0x24(%ebp)
	bitHead.bfType = *temp_WORD;//取下文件头字符串里WORD类型的bfType
    3021:	8b 45 dc             	mov    -0x24(%ebp),%eax
    3024:	0f b7 00             	movzwl (%eax),%eax
    3027:	66 89 45 ac          	mov    %ax,-0x54(%ebp)
	if (bitHead.bfType != 0x4d42) {//不是0x4d42的话就给跪
    302b:	0f b7 45 ac          	movzwl -0x54(%ebp),%eax
    302f:	66 3d 42 4d          	cmp    $0x4d42,%ax
    3033:	74 19                	je     304e <loadBitmap+0xc6>
		printf(0, "file is not .bmp file!");
    3035:	c7 44 24 04 88 ac 00 	movl   $0xac88,0x4(%esp)
    303c:	00 
    303d:	c7 04 24 00 00 00 00 	movl   $0x0,(%esp)
    3044:	e8 f9 12 00 00       	call   4342 <printf>
		return;
    3049:	e9 75 02 00 00       	jmp    32c3 <loadBitmap+0x33b>
	}
	temp_DWORD = (DWORD *) (BmpFileHeader + sizeof(bitHead.bfType));
    304e:	8b 45 e4             	mov    -0x1c(%ebp),%eax
    3051:	83 c0 02             	add    $0x2,%eax
    3054:	89 45 d8             	mov    %eax,-0x28(%ebp)
	bitHead.bfSize = *temp_DWORD;//取文件大小
    3057:	8b 45 d8             	mov    -0x28(%ebp),%eax
    305a:	8b 00                	mov    (%eax),%eax
    305c:	89 45 b0             	mov    %eax,-0x50(%ebp)
	temp_WORD = (WORD*) (BmpFileHeader + sizeof(bitHead.bfType)
    305f:	8b 45 e4             	mov    -0x1c(%ebp),%eax
    3062:	83 c0 06             	add    $0x6,%eax
    3065:	89 45 dc             	mov    %eax,-0x24(%ebp)
			+ sizeof(bitHead.bfSize));
	bitHead.bfReserved1 = *temp_WORD;//取保留字1
    3068:	8b 45 dc             	mov    -0x24(%ebp),%eax
    306b:	0f b7 00             	movzwl (%eax),%eax
    306e:	66 89 45 b4          	mov    %ax,-0x4c(%ebp)
	temp_WORD = (WORD*) (BmpFileHeader + sizeof(bitHead.bfType)
    3072:	8b 45 e4             	mov    -0x1c(%ebp),%eax
    3075:	83 c0 08             	add    $0x8,%eax
    3078:	89 45 dc             	mov    %eax,-0x24(%ebp)
			+ sizeof(bitHead.bfSize) + sizeof(bitHead.bfReserved1));
	bitHead.bfReserved2 = *temp_WORD;//取保留字2
    307b:	8b 45 dc             	mov    -0x24(%ebp),%eax
    307e:	0f b7 00             	movzwl (%eax),%eax
    3081:	66 89 45 b6          	mov    %ax,-0x4a(%ebp)
	temp_DWORD = (DWORD*) (BmpFileHeader + sizeof(bitHead.bfType)
    3085:	8b 45 e4             	mov    -0x1c(%ebp),%eax
    3088:	83 c0 0a             	add    $0xa,%eax
    308b:	89 45 d8             	mov    %eax,-0x28(%ebp)
			+ sizeof(bitHead.bfSize) + sizeof(bitHead.bfReserved1)
			+ sizeof(bitHead.bfReserved2));
	bitHead.bfOffBits = *temp_DWORD;//取偏移字节数
    308e:	8b 45 d8             	mov    -0x28(%ebp),%eax
    3091:	8b 00                	mov    (%eax),%eax
    3093:	89 45 b8             	mov    %eax,-0x48(%ebp)
    //读取文件头结束
	
    //读取位图信息头信息
	read(fd, &bitInfoHead, sizeof(BITMAPINFOHEADER));//读取信息头到信息头（这是把字符串一下子读给一个结构体吗？这么神奇吗？）
    3096:	c7 44 24 08 28 00 00 	movl   $0x28,0x8(%esp)
    309d:	00 
    309e:	8d 45 84             	lea    -0x7c(%ebp),%eax
    30a1:	89 44 24 04          	mov    %eax,0x4(%esp)
    30a5:	8b 45 e8             	mov    -0x18(%ebp),%eax
    30a8:	89 04 24             	mov    %eax,(%esp)
    30ab:	e8 c2 10 00 00       	call   4172 <read>
	width = bitInfoHead.biWidth;//宽取下来
    30b0:	8b 45 88             	mov    -0x78(%ebp),%eax
    30b3:	89 45 d4             	mov    %eax,-0x2c(%ebp)
	height = bitInfoHead.biHeight;//高取下来
    30b6:	8b 45 8c             	mov    -0x74(%ebp),%eax
    30b9:	89 45 d0             	mov    %eax,-0x30(%ebp)
	printf(0, "bmp width: %d, height: %d, size: %d\n", width, height,
			width * height * sizeof(RGBQUAD));//输出宽、高、大小
    30bc:	8b 45 d4             	mov    -0x2c(%ebp),%eax
    30bf:	0f af 45 d0          	imul   -0x30(%ebp),%eax
	
    //读取位图信息头信息
	read(fd, &bitInfoHead, sizeof(BITMAPINFOHEADER));//读取信息头到信息头（这是把字符串一下子读给一个结构体吗？这么神奇吗？）
	width = bitInfoHead.biWidth;//宽取下来
	height = bitInfoHead.biHeight;//高取下来
	printf(0, "bmp width: %d, height: %d, size: %d\n", width, height,
    30c3:	c1 e0 02             	shl    $0x2,%eax
    30c6:	89 44 24 10          	mov    %eax,0x10(%esp)
    30ca:	8b 45 d0             	mov    -0x30(%ebp),%eax
    30cd:	89 44 24 0c          	mov    %eax,0xc(%esp)
    30d1:	8b 45 d4             	mov    -0x2c(%ebp),%eax
    30d4:	89 44 24 08          	mov    %eax,0x8(%esp)
    30d8:	c7 44 24 04 a0 ac 00 	movl   $0xaca0,0x4(%esp)
    30df:	00 
    30e0:	c7 04 24 00 00 00 00 	movl   $0x0,(%esp)
    30e7:	e8 56 12 00 00       	call   4342 <printf>
			width * height * sizeof(RGBQUAD));//输出宽、高、大小
    if (n == 0) {
    30ec:	83 7d e0 00          	cmpl   $0x0,-0x20(%ebp)
    30f0:	75 14                	jne    3106 <loadBitmap+0x17e>
		printf(0, "0");
    30f2:	c7 44 24 04 c5 ac 00 	movl   $0xacc5,0x4(%esp)
    30f9:	00 
    30fa:	c7 04 24 00 00 00 00 	movl   $0x0,(%esp)
    3101:	e8 3c 12 00 00       	call   4342 <printf>
	}
    //读取位图信息头信息结束

	//分配内存空间把源图存入内存
	int l_width = WIDTHBYTES(width * bitInfoHead.biBitCount);//计算位图的实际宽度并确保它为32的倍数
    3106:	0f b7 45 92          	movzwl -0x6e(%ebp),%eax
    310a:	0f b7 c0             	movzwl %ax,%eax
    310d:	0f af 45 d4          	imul   -0x2c(%ebp),%eax
    3111:	83 c0 1f             	add    $0x1f,%eax
    3114:	8d 50 1f             	lea    0x1f(%eax),%edx
    3117:	85 c0                	test   %eax,%eax
    3119:	0f 48 c2             	cmovs  %edx,%eax
    311c:	c1 f8 05             	sar    $0x5,%eax
    311f:	c1 e0 02             	shl    $0x2,%eax
    3122:	89 45 cc             	mov    %eax,-0x34(%ebp)
	BYTE *pColorData = (BYTE *) malloc(height * l_width);
    3125:	8b 45 d0             	mov    -0x30(%ebp),%eax
    3128:	0f af 45 cc          	imul   -0x34(%ebp),%eax
    312c:	89 04 24             	mov    %eax,(%esp)
    312f:	e8 fa 14 00 00       	call   462e <malloc>
    3134:	89 45 c8             	mov    %eax,-0x38(%ebp)
	memset(pColorData, 0, (uint) height * l_width);
    3137:	8b 55 d0             	mov    -0x30(%ebp),%edx
    313a:	8b 45 cc             	mov    -0x34(%ebp),%eax
    313d:	0f af c2             	imul   %edx,%eax
    3140:	89 44 24 08          	mov    %eax,0x8(%esp)
    3144:	c7 44 24 04 00 00 00 	movl   $0x0,0x4(%esp)
    314b:	00 
    314c:	8b 45 c8             	mov    -0x38(%ebp),%eax
    314f:	89 04 24             	mov    %eax,(%esp)
    3152:	e8 56 0e 00 00       	call   3fad <memset>
	long nData = height * l_width;
    3157:	8b 45 d0             	mov    -0x30(%ebp),%eax
    315a:	0f af 45 cc          	imul   -0x34(%ebp),%eax
    315e:	89 45 c4             	mov    %eax,-0x3c(%ebp)
	
    //把位图数据信息读到数组里
	read(fd, pColorData, nData);
    3161:	8b 45 c4             	mov    -0x3c(%ebp),%eax
    3164:	89 44 24 08          	mov    %eax,0x8(%esp)
    3168:	8b 45 c8             	mov    -0x38(%ebp),%eax
    316b:	89 44 24 04          	mov    %eax,0x4(%esp)
    316f:	8b 45 e8             	mov    -0x18(%ebp),%eax
    3172:	89 04 24             	mov    %eax,(%esp)
    3175:	e8 f8 0f 00 00       	call   4172 <read>

    //将位图数据转化为RGB数据
	RGBQUAD* dataOfBmp;
	dataOfBmp = (RGBQUAD *) malloc(width * height * sizeof(RGBQUAD));//用于保存各像素对应的RGB数据
    317a:	8b 45 d4             	mov    -0x2c(%ebp),%eax
    317d:	0f af 45 d0          	imul   -0x30(%ebp),%eax
    3181:	c1 e0 02             	shl    $0x2,%eax
    3184:	89 04 24             	mov    %eax,(%esp)
    3187:	e8 a2 14 00 00       	call   462e <malloc>
    318c:	89 45 c0             	mov    %eax,-0x40(%ebp)
	memset(dataOfBmp, 0, (uint) width * height * sizeof(RGBQUAD));
    318f:	8b 55 d4             	mov    -0x2c(%ebp),%edx
    3192:	8b 45 d0             	mov    -0x30(%ebp),%eax
    3195:	0f af c2             	imul   %edx,%eax
    3198:	c1 e0 02             	shl    $0x2,%eax
    319b:	89 44 24 08          	mov    %eax,0x8(%esp)
    319f:	c7 44 24 04 00 00 00 	movl   $0x0,0x4(%esp)
    31a6:	00 
    31a7:	8b 45 c0             	mov    -0x40(%ebp),%eax
    31aa:	89 04 24             	mov    %eax,(%esp)
    31ad:	e8 fb 0d 00 00       	call   3fad <memset>
	if (bitInfoHead.biBitCount < 24)//有调色板，即位图为非真彩色
    31b2:	0f b7 45 92          	movzwl -0x6e(%ebp),%eax
    31b6:	66 83 f8 17          	cmp    $0x17,%ax
    31ba:	77 19                	ja     31d5 <loadBitmap+0x24d>
    {
		printf(0, "%s is not a 24 bit bmp! return.");
    31bc:	c7 44 24 04 c8 ac 00 	movl   $0xacc8,0x4(%esp)
    31c3:	00 
    31c4:	c7 04 24 00 00 00 00 	movl   $0x0,(%esp)
    31cb:	e8 72 11 00 00       	call   4342 <printf>
		return;
    31d0:	e9 ee 00 00 00       	jmp    32c3 <loadBitmap+0x33b>
	} else	//位图为24位真彩色
	{
		index = 0;
    31d5:	c7 45 ec 00 00 00 00 	movl   $0x0,-0x14(%ebp)
		for (i = 0; i < height; i++)
    31dc:	c7 45 f4 00 00 00 00 	movl   $0x0,-0xc(%ebp)
    31e3:	e9 94 00 00 00       	jmp    327c <loadBitmap+0x2f4>
			for (j = 0; j < width; j++) {
    31e8:	c7 45 f0 00 00 00 00 	movl   $0x0,-0x10(%ebp)
    31ef:	eb 7b                	jmp    326c <loadBitmap+0x2e4>
				k = i * l_width + j * 3;
    31f1:	8b 45 f4             	mov    -0xc(%ebp),%eax
    31f4:	0f af 45 cc          	imul   -0x34(%ebp),%eax
    31f8:	89 c1                	mov    %eax,%ecx
    31fa:	8b 55 f0             	mov    -0x10(%ebp),%edx
    31fd:	89 d0                	mov    %edx,%eax
    31ff:	01 c0                	add    %eax,%eax
    3201:	01 d0                	add    %edx,%eax
    3203:	01 c8                	add    %ecx,%eax
    3205:	89 45 bc             	mov    %eax,-0x44(%ebp)
				dataOfBmp[index].rgbRed = pColorData[k + 2];
    3208:	8b 45 ec             	mov    -0x14(%ebp),%eax
    320b:	8d 14 85 00 00 00 00 	lea    0x0(,%eax,4),%edx
    3212:	8b 45 c0             	mov    -0x40(%ebp),%eax
    3215:	01 c2                	add    %eax,%edx
    3217:	8b 45 bc             	mov    -0x44(%ebp),%eax
    321a:	8d 48 02             	lea    0x2(%eax),%ecx
    321d:	8b 45 c8             	mov    -0x38(%ebp),%eax
    3220:	01 c8                	add    %ecx,%eax
    3222:	0f b6 00             	movzbl (%eax),%eax
    3225:	88 42 02             	mov    %al,0x2(%edx)
				dataOfBmp[index].rgbGreen = pColorData[k + 1];
    3228:	8b 45 ec             	mov    -0x14(%ebp),%eax
    322b:	8d 14 85 00 00 00 00 	lea    0x0(,%eax,4),%edx
    3232:	8b 45 c0             	mov    -0x40(%ebp),%eax
    3235:	01 c2                	add    %eax,%edx
    3237:	8b 45 bc             	mov    -0x44(%ebp),%eax
    323a:	8d 48 01             	lea    0x1(%eax),%ecx
    323d:	8b 45 c8             	mov    -0x38(%ebp),%eax
    3240:	01 c8                	add    %ecx,%eax
    3242:	0f b6 00             	movzbl (%eax),%eax
    3245:	88 42 01             	mov    %al,0x1(%edx)
				dataOfBmp[index].rgbBlue = pColorData[k];
    3248:	8b 45 ec             	mov    -0x14(%ebp),%eax
    324b:	8d 14 85 00 00 00 00 	lea    0x0(,%eax,4),%edx
    3252:	8b 45 c0             	mov    -0x40(%ebp),%eax
    3255:	01 c2                	add    %eax,%edx
    3257:	8b 4d bc             	mov    -0x44(%ebp),%ecx
    325a:	8b 45 c8             	mov    -0x38(%ebp),%eax
    325d:	01 c8                	add    %ecx,%eax
    325f:	0f b6 00             	movzbl (%eax),%eax
    3262:	88 02                	mov    %al,(%edx)
				index++;
    3264:	83 45 ec 01          	addl   $0x1,-0x14(%ebp)
		return;
	} else	//位图为24位真彩色
	{
		index = 0;
		for (i = 0; i < height; i++)
			for (j = 0; j < width; j++) {
    3268:	83 45 f0 01          	addl   $0x1,-0x10(%ebp)
    326c:	8b 45 f0             	mov    -0x10(%ebp),%eax
    326f:	3b 45 d4             	cmp    -0x2c(%ebp),%eax
    3272:	0f 8c 79 ff ff ff    	jl     31f1 <loadBitmap+0x269>
		printf(0, "%s is not a 24 bit bmp! return.");
		return;
	} else	//位图为24位真彩色
	{
		index = 0;
		for (i = 0; i < height; i++)
    3278:	83 45 f4 01          	addl   $0x1,-0xc(%ebp)
    327c:	8b 45 f4             	mov    -0xc(%ebp),%eax
    327f:	3b 45 d0             	cmp    -0x30(%ebp),%eax
    3282:	0f 8c 60 ff ff ff    	jl     31e8 <loadBitmap+0x260>
				index++;
			}
	}
    
    //关闭该文件
	close(fd);
    3288:	8b 45 e8             	mov    -0x18(%ebp),%eax
    328b:	89 04 24             	mov    %eax,(%esp)
    328e:	e8 ef 0e 00 00       	call   4182 <close>
    //存入pic指向的节点中
	pic->data = dataOfBmp;//存RGB数组
    3293:	8b 45 08             	mov    0x8(%ebp),%eax
    3296:	8b 55 c0             	mov    -0x40(%ebp),%edx
    3299:	89 10                	mov    %edx,(%eax)
	pic->width = width;//存宽
    329b:	8b 45 08             	mov    0x8(%ebp),%eax
    329e:	8b 55 d4             	mov    -0x2c(%ebp),%edx
    32a1:	89 50 04             	mov    %edx,0x4(%eax)
	pic->height = height;//存高
    32a4:	8b 45 08             	mov    0x8(%ebp),%eax
    32a7:	8b 55 d0             	mov    -0x30(%ebp),%edx
    32aa:	89 50 08             	mov    %edx,0x8(%eax)

	free(pColorData);
    32ad:	8b 45 c8             	mov    -0x38(%ebp),%eax
    32b0:	89 04 24             	mov    %eax,(%esp)
    32b3:	e8 3d 12 00 00       	call   44f5 <free>
	free(BmpFileHeader);
    32b8:	8b 45 e4             	mov    -0x1c(%ebp),%eax
    32bb:	89 04 24             	mov    %eax,(%esp)
    32be:	e8 32 12 00 00       	call   44f5 <free>
}
    32c3:	c9                   	leave  
    32c4:	c3                   	ret    

000032c5 <showBmpHead>:

void showBmpHead(BITMAPFILEHEADER* pBmpHead)//输出文件头
{
    32c5:	55                   	push   %ebp
    32c6:	89 e5                	mov    %esp,%ebp
    32c8:	83 ec 18             	sub    $0x18,%esp
    printf(0, "位图文件头:\n");
    32cb:	c7 44 24 04 e8 ac 00 	movl   $0xace8,0x4(%esp)
    32d2:	00 
    32d3:	c7 04 24 00 00 00 00 	movl   $0x0,(%esp)
    32da:	e8 63 10 00 00       	call   4342 <printf>
	printf(0, "bmp格式标志bftype：0x%x\n", pBmpHead->bfType);
    32df:	8b 45 08             	mov    0x8(%ebp),%eax
    32e2:	0f b7 00             	movzwl (%eax),%eax
    32e5:	0f b7 c0             	movzwl %ax,%eax
    32e8:	89 44 24 08          	mov    %eax,0x8(%esp)
    32ec:	c7 44 24 04 fa ac 00 	movl   $0xacfa,0x4(%esp)
    32f3:	00 
    32f4:	c7 04 24 00 00 00 00 	movl   $0x0,(%esp)
    32fb:	e8 42 10 00 00       	call   4342 <printf>
	printf(0, "文件大小:%d\n", pBmpHead->bfSize);
    3300:	8b 45 08             	mov    0x8(%ebp),%eax
    3303:	8b 40 04             	mov    0x4(%eax),%eax
    3306:	89 44 24 08          	mov    %eax,0x8(%esp)
    330a:	c7 44 24 04 18 ad 00 	movl   $0xad18,0x4(%esp)
    3311:	00 
    3312:	c7 04 24 00 00 00 00 	movl   $0x0,(%esp)
    3319:	e8 24 10 00 00       	call   4342 <printf>
	printf(0, "保留字:%d\n", pBmpHead->bfReserved1);
    331e:	8b 45 08             	mov    0x8(%ebp),%eax
    3321:	0f b7 40 08          	movzwl 0x8(%eax),%eax
    3325:	0f b7 c0             	movzwl %ax,%eax
    3328:	89 44 24 08          	mov    %eax,0x8(%esp)
    332c:	c7 44 24 04 29 ad 00 	movl   $0xad29,0x4(%esp)
    3333:	00 
    3334:	c7 04 24 00 00 00 00 	movl   $0x0,(%esp)
    333b:	e8 02 10 00 00       	call   4342 <printf>
	printf(0, "保留字:%d\n", pBmpHead->bfReserved2);
    3340:	8b 45 08             	mov    0x8(%ebp),%eax
    3343:	0f b7 40 0a          	movzwl 0xa(%eax),%eax
    3347:	0f b7 c0             	movzwl %ax,%eax
    334a:	89 44 24 08          	mov    %eax,0x8(%esp)
    334e:	c7 44 24 04 29 ad 00 	movl   $0xad29,0x4(%esp)
    3355:	00 
    3356:	c7 04 24 00 00 00 00 	movl   $0x0,(%esp)
    335d:	e8 e0 0f 00 00       	call   4342 <printf>
	printf(0, "实际位图数据的偏移字节数:%d\n", pBmpHead->bfOffBits);
    3362:	8b 45 08             	mov    0x8(%ebp),%eax
    3365:	8b 40 0c             	mov    0xc(%eax),%eax
    3368:	89 44 24 08          	mov    %eax,0x8(%esp)
    336c:	c7 44 24 04 38 ad 00 	movl   $0xad38,0x4(%esp)
    3373:	00 
    3374:	c7 04 24 00 00 00 00 	movl   $0x0,(%esp)
    337b:	e8 c2 0f 00 00       	call   4342 <printf>
}
    3380:	c9                   	leave  
    3381:	c3                   	ret    

00003382 <showBmpInforHead>:

void showBmpInforHead(BITMAPINFOHEADER* pBmpInforHead)//输出信息头
{
    3382:	55                   	push   %ebp
    3383:	89 e5                	mov    %esp,%ebp
    3385:	83 ec 18             	sub    $0x18,%esp
	printf(0, "位图信息头:\n");
    3388:	c7 44 24 04 61 ad 00 	movl   $0xad61,0x4(%esp)
    338f:	00 
    3390:	c7 04 24 00 00 00 00 	movl   $0x0,(%esp)
    3397:	e8 a6 0f 00 00       	call   4342 <printf>
	printf(0, "结构体的长度:%d\n", pBmpInforHead->biSize);
    339c:	8b 45 08             	mov    0x8(%ebp),%eax
    339f:	8b 00                	mov    (%eax),%eax
    33a1:	89 44 24 08          	mov    %eax,0x8(%esp)
    33a5:	c7 44 24 04 73 ad 00 	movl   $0xad73,0x4(%esp)
    33ac:	00 
    33ad:	c7 04 24 00 00 00 00 	movl   $0x0,(%esp)
    33b4:	e8 89 0f 00 00       	call   4342 <printf>
	printf(0, "位图宽:%d\n", pBmpInforHead->biWidth);
    33b9:	8b 45 08             	mov    0x8(%ebp),%eax
    33bc:	8b 40 04             	mov    0x4(%eax),%eax
    33bf:	89 44 24 08          	mov    %eax,0x8(%esp)
    33c3:	c7 44 24 04 8a ad 00 	movl   $0xad8a,0x4(%esp)
    33ca:	00 
    33cb:	c7 04 24 00 00 00 00 	movl   $0x0,(%esp)
    33d2:	e8 6b 0f 00 00       	call   4342 <printf>
	printf(0, "位图高:%d\n", pBmpInforHead->biHeight);
    33d7:	8b 45 08             	mov    0x8(%ebp),%eax
    33da:	8b 40 08             	mov    0x8(%eax),%eax
    33dd:	89 44 24 08          	mov    %eax,0x8(%esp)
    33e1:	c7 44 24 04 98 ad 00 	movl   $0xad98,0x4(%esp)
    33e8:	00 
    33e9:	c7 04 24 00 00 00 00 	movl   $0x0,(%esp)
    33f0:	e8 4d 0f 00 00       	call   4342 <printf>
	printf(0, "biPlanes平面数:%d\n", pBmpInforHead->biPlanes);
    33f5:	8b 45 08             	mov    0x8(%ebp),%eax
    33f8:	0f b7 40 0c          	movzwl 0xc(%eax),%eax
    33fc:	0f b7 c0             	movzwl %ax,%eax
    33ff:	89 44 24 08          	mov    %eax,0x8(%esp)
    3403:	c7 44 24 04 a6 ad 00 	movl   $0xada6,0x4(%esp)
    340a:	00 
    340b:	c7 04 24 00 00 00 00 	movl   $0x0,(%esp)
    3412:	e8 2b 0f 00 00       	call   4342 <printf>
	printf(0, "biBitCount采用颜色位数:%d\n", pBmpInforHead->biBitCount);
    3417:	8b 45 08             	mov    0x8(%ebp),%eax
    341a:	0f b7 40 0e          	movzwl 0xe(%eax),%eax
    341e:	0f b7 c0             	movzwl %ax,%eax
    3421:	89 44 24 08          	mov    %eax,0x8(%esp)
    3425:	c7 44 24 04 bc ad 00 	movl   $0xadbc,0x4(%esp)
    342c:	00 
    342d:	c7 04 24 00 00 00 00 	movl   $0x0,(%esp)
    3434:	e8 09 0f 00 00       	call   4342 <printf>
	printf(0, "压缩方式:%d\n", pBmpInforHead->biCompression);
    3439:	8b 45 08             	mov    0x8(%ebp),%eax
    343c:	8b 40 10             	mov    0x10(%eax),%eax
    343f:	89 44 24 08          	mov    %eax,0x8(%esp)
    3443:	c7 44 24 04 dd ad 00 	movl   $0xaddd,0x4(%esp)
    344a:	00 
    344b:	c7 04 24 00 00 00 00 	movl   $0x0,(%esp)
    3452:	e8 eb 0e 00 00       	call   4342 <printf>
	printf(0, "biSizeImage实际位图数据占用的字节数:%d\n", pBmpInforHead->biSizeImage);
    3457:	8b 45 08             	mov    0x8(%ebp),%eax
    345a:	8b 40 14             	mov    0x14(%eax),%eax
    345d:	89 44 24 08          	mov    %eax,0x8(%esp)
    3461:	c7 44 24 04 f0 ad 00 	movl   $0xadf0,0x4(%esp)
    3468:	00 
    3469:	c7 04 24 00 00 00 00 	movl   $0x0,(%esp)
    3470:	e8 cd 0e 00 00       	call   4342 <printf>
	printf(0, "X方向分辨率:%d\n", pBmpInforHead->biXPelsPerMeter);
    3475:	8b 45 08             	mov    0x8(%ebp),%eax
    3478:	8b 40 18             	mov    0x18(%eax),%eax
    347b:	89 44 24 08          	mov    %eax,0x8(%esp)
    347f:	c7 44 24 04 24 ae 00 	movl   $0xae24,0x4(%esp)
    3486:	00 
    3487:	c7 04 24 00 00 00 00 	movl   $0x0,(%esp)
    348e:	e8 af 0e 00 00       	call   4342 <printf>
	printf(0, "Y方向分辨率:%d\n", pBmpInforHead->biYPelsPerMeter);
    3493:	8b 45 08             	mov    0x8(%ebp),%eax
    3496:	8b 40 1c             	mov    0x1c(%eax),%eax
    3499:	89 44 24 08          	mov    %eax,0x8(%esp)
    349d:	c7 44 24 04 39 ae 00 	movl   $0xae39,0x4(%esp)
    34a4:	00 
    34a5:	c7 04 24 00 00 00 00 	movl   $0x0,(%esp)
    34ac:	e8 91 0e 00 00       	call   4342 <printf>
	printf(0, "使用的颜色数:%d\n", pBmpInforHead->biClrUsed);
    34b1:	8b 45 08             	mov    0x8(%ebp),%eax
    34b4:	8b 40 20             	mov    0x20(%eax),%eax
    34b7:	89 44 24 08          	mov    %eax,0x8(%esp)
    34bb:	c7 44 24 04 4e ae 00 	movl   $0xae4e,0x4(%esp)
    34c2:	00 
    34c3:	c7 04 24 00 00 00 00 	movl   $0x0,(%esp)
    34ca:	e8 73 0e 00 00       	call   4342 <printf>
	printf(0, "重要颜色数:%d\n", pBmpInforHead->biClrImportant);
    34cf:	8b 45 08             	mov    0x8(%ebp),%eax
    34d2:	8b 40 24             	mov    0x24(%eax),%eax
    34d5:	89 44 24 08          	mov    %eax,0x8(%esp)
    34d9:	c7 44 24 04 65 ae 00 	movl   $0xae65,0x4(%esp)
    34e0:	00 
    34e1:	c7 04 24 00 00 00 00 	movl   $0x0,(%esp)
    34e8:	e8 55 0e 00 00       	call   4342 <printf>
}
    34ed:	c9                   	leave  
    34ee:	c3                   	ret    

000034ef <showRgbQuan>:
void showRgbQuan(RGBQUAD* pRGB)//输出RGB
{
    34ef:	55                   	push   %ebp
    34f0:	89 e5                	mov    %esp,%ebp
    34f2:	83 ec 28             	sub    $0x28,%esp
	printf(0, "(%d,%d,%d) ", pRGB->rgbRed, pRGB->rgbGreen, pRGB->rgbBlue);
    34f5:	8b 45 08             	mov    0x8(%ebp),%eax
    34f8:	0f b6 00             	movzbl (%eax),%eax
    34fb:	0f b6 c8             	movzbl %al,%ecx
    34fe:	8b 45 08             	mov    0x8(%ebp),%eax
    3501:	0f b6 40 01          	movzbl 0x1(%eax),%eax
    3505:	0f b6 d0             	movzbl %al,%edx
    3508:	8b 45 08             	mov    0x8(%ebp),%eax
    350b:	0f b6 40 02          	movzbl 0x2(%eax),%eax
    350f:	0f b6 c0             	movzbl %al,%eax
    3512:	89 4c 24 10          	mov    %ecx,0x10(%esp)
    3516:	89 54 24 0c          	mov    %edx,0xc(%esp)
    351a:	89 44 24 08          	mov    %eax,0x8(%esp)
    351e:	c7 44 24 04 79 ae 00 	movl   $0xae79,0x4(%esp)
    3525:	00 
    3526:	c7 04 24 00 00 00 00 	movl   $0x0,(%esp)
    352d:	e8 10 0e 00 00       	call   4342 <printf>
}
    3532:	c9                   	leave  
    3533:	c3                   	ret    

00003534 <freepic>:

void freepic(PICNODE *pic)//释放pic
{
    3534:	55                   	push   %ebp
    3535:	89 e5                	mov    %esp,%ebp
    3537:	83 ec 18             	sub    $0x18,%esp
	free(pic->data);
    353a:	8b 45 08             	mov    0x8(%ebp),%eax
    353d:	8b 00                	mov    (%eax),%eax
    353f:	89 04 24             	mov    %eax,(%esp)
    3542:	e8 ae 0f 00 00       	call   44f5 <free>
}
    3547:	c9                   	leave  
    3548:	c3                   	ret    

00003549 <set_icon_alpha>:

void set_icon_alpha(PICNODE *pic)//图标透明度,rgb保留值用于Alpha通道
{
    3549:	55                   	push   %ebp
    354a:	89 e5                	mov    %esp,%ebp
    354c:	53                   	push   %ebx
    354d:	81 ec 84 00 00 00    	sub    $0x84,%esp
	int W = 15;
    3553:	c7 45 ec 0f 00 00 00 	movl   $0xf,-0x14(%ebp)
	Rect r1 = initRect(0, 0, W, W);
    355a:	8d 45 dc             	lea    -0x24(%ebp),%eax
    355d:	8b 55 ec             	mov    -0x14(%ebp),%edx
    3560:	89 54 24 10          	mov    %edx,0x10(%esp)
    3564:	8b 55 ec             	mov    -0x14(%ebp),%edx
    3567:	89 54 24 0c          	mov    %edx,0xc(%esp)
    356b:	c7 44 24 08 00 00 00 	movl   $0x0,0x8(%esp)
    3572:	00 
    3573:	c7 44 24 04 00 00 00 	movl   $0x0,0x4(%esp)
    357a:	00 
    357b:	89 04 24             	mov    %eax,(%esp)
    357e:	e8 80 02 00 00       	call   3803 <initRect>
    3583:	83 ec 04             	sub    $0x4,%esp
	Rect r2 = initRect(pic->width - W, 0, W, W);
    3586:	8b 45 08             	mov    0x8(%ebp),%eax
    3589:	8b 40 04             	mov    0x4(%eax),%eax
    358c:	2b 45 ec             	sub    -0x14(%ebp),%eax
    358f:	89 c2                	mov    %eax,%edx
    3591:	8d 45 cc             	lea    -0x34(%ebp),%eax
    3594:	8b 4d ec             	mov    -0x14(%ebp),%ecx
    3597:	89 4c 24 10          	mov    %ecx,0x10(%esp)
    359b:	8b 4d ec             	mov    -0x14(%ebp),%ecx
    359e:	89 4c 24 0c          	mov    %ecx,0xc(%esp)
    35a2:	c7 44 24 08 00 00 00 	movl   $0x0,0x8(%esp)
    35a9:	00 
    35aa:	89 54 24 04          	mov    %edx,0x4(%esp)
    35ae:	89 04 24             	mov    %eax,(%esp)
    35b1:	e8 4d 02 00 00       	call   3803 <initRect>
    35b6:	83 ec 04             	sub    $0x4,%esp
	Rect r3 = initRect(pic->width - W, pic->height - W, W, W);
    35b9:	8b 45 08             	mov    0x8(%ebp),%eax
    35bc:	8b 40 08             	mov    0x8(%eax),%eax
    35bf:	2b 45 ec             	sub    -0x14(%ebp),%eax
    35c2:	89 c1                	mov    %eax,%ecx
    35c4:	8b 45 08             	mov    0x8(%ebp),%eax
    35c7:	8b 40 04             	mov    0x4(%eax),%eax
    35ca:	2b 45 ec             	sub    -0x14(%ebp),%eax
    35cd:	89 c2                	mov    %eax,%edx
    35cf:	8d 45 bc             	lea    -0x44(%ebp),%eax
    35d2:	8b 5d ec             	mov    -0x14(%ebp),%ebx
    35d5:	89 5c 24 10          	mov    %ebx,0x10(%esp)
    35d9:	8b 5d ec             	mov    -0x14(%ebp),%ebx
    35dc:	89 5c 24 0c          	mov    %ebx,0xc(%esp)
    35e0:	89 4c 24 08          	mov    %ecx,0x8(%esp)
    35e4:	89 54 24 04          	mov    %edx,0x4(%esp)
    35e8:	89 04 24             	mov    %eax,(%esp)
    35eb:	e8 13 02 00 00       	call   3803 <initRect>
    35f0:	83 ec 04             	sub    $0x4,%esp
	Rect r4 = initRect(0, pic->height - W, W, W);
    35f3:	8b 45 08             	mov    0x8(%ebp),%eax
    35f6:	8b 40 08             	mov    0x8(%eax),%eax
    35f9:	2b 45 ec             	sub    -0x14(%ebp),%eax
    35fc:	89 c2                	mov    %eax,%edx
    35fe:	8d 45 ac             	lea    -0x54(%ebp),%eax
    3601:	8b 4d ec             	mov    -0x14(%ebp),%ecx
    3604:	89 4c 24 10          	mov    %ecx,0x10(%esp)
    3608:	8b 4d ec             	mov    -0x14(%ebp),%ecx
    360b:	89 4c 24 0c          	mov    %ecx,0xc(%esp)
    360f:	89 54 24 08          	mov    %edx,0x8(%esp)
    3613:	c7 44 24 04 00 00 00 	movl   $0x0,0x4(%esp)
    361a:	00 
    361b:	89 04 24             	mov    %eax,(%esp)
    361e:	e8 e0 01 00 00       	call   3803 <initRect>
    3623:	83 ec 04             	sub    $0x4,%esp
	Point p;
	int i, j;
	for (i = 0; i < pic->width; i++) {
    3626:	c7 45 f4 00 00 00 00 	movl   $0x0,-0xc(%ebp)
    362d:	e9 96 01 00 00       	jmp    37c8 <set_icon_alpha+0x27f>
		for (j = 0; j < pic->height; j++) {
    3632:	c7 45 f0 00 00 00 00 	movl   $0x0,-0x10(%ebp)
    3639:	e9 77 01 00 00       	jmp    37b5 <set_icon_alpha+0x26c>
			p = initPoint(i, j);
    363e:	8d 45 a4             	lea    -0x5c(%ebp),%eax
    3641:	8b 55 f0             	mov    -0x10(%ebp),%edx
    3644:	89 54 24 08          	mov    %edx,0x8(%esp)
    3648:	8b 55 f4             	mov    -0xc(%ebp),%edx
    364b:	89 54 24 04          	mov    %edx,0x4(%esp)
    364f:	89 04 24             	mov    %eax,(%esp)
    3652:	e8 85 01 00 00       	call   37dc <initPoint>
    3657:	83 ec 04             	sub    $0x4,%esp
			if (isIn(p, r1) || isIn(p, r2) || isIn(p, r3) || isIn(p, r4)) {
    365a:	8b 45 dc             	mov    -0x24(%ebp),%eax
    365d:	89 44 24 08          	mov    %eax,0x8(%esp)
    3661:	8b 45 e0             	mov    -0x20(%ebp),%eax
    3664:	89 44 24 0c          	mov    %eax,0xc(%esp)
    3668:	8b 45 e4             	mov    -0x1c(%ebp),%eax
    366b:	89 44 24 10          	mov    %eax,0x10(%esp)
    366f:	8b 45 e8             	mov    -0x18(%ebp),%eax
    3672:	89 44 24 14          	mov    %eax,0x14(%esp)
    3676:	8b 45 a4             	mov    -0x5c(%ebp),%eax
    3679:	8b 55 a8             	mov    -0x58(%ebp),%edx
    367c:	89 04 24             	mov    %eax,(%esp)
    367f:	89 54 24 04          	mov    %edx,0x4(%esp)
    3683:	e8 d6 01 00 00       	call   385e <isIn>
    3688:	85 c0                	test   %eax,%eax
    368a:	0f 85 9a 00 00 00    	jne    372a <set_icon_alpha+0x1e1>
    3690:	8b 45 cc             	mov    -0x34(%ebp),%eax
    3693:	89 44 24 08          	mov    %eax,0x8(%esp)
    3697:	8b 45 d0             	mov    -0x30(%ebp),%eax
    369a:	89 44 24 0c          	mov    %eax,0xc(%esp)
    369e:	8b 45 d4             	mov    -0x2c(%ebp),%eax
    36a1:	89 44 24 10          	mov    %eax,0x10(%esp)
    36a5:	8b 45 d8             	mov    -0x28(%ebp),%eax
    36a8:	89 44 24 14          	mov    %eax,0x14(%esp)
    36ac:	8b 45 a4             	mov    -0x5c(%ebp),%eax
    36af:	8b 55 a8             	mov    -0x58(%ebp),%edx
    36b2:	89 04 24             	mov    %eax,(%esp)
    36b5:	89 54 24 04          	mov    %edx,0x4(%esp)
    36b9:	e8 a0 01 00 00       	call   385e <isIn>
    36be:	85 c0                	test   %eax,%eax
    36c0:	75 68                	jne    372a <set_icon_alpha+0x1e1>
    36c2:	8b 45 bc             	mov    -0x44(%ebp),%eax
    36c5:	89 44 24 08          	mov    %eax,0x8(%esp)
    36c9:	8b 45 c0             	mov    -0x40(%ebp),%eax
    36cc:	89 44 24 0c          	mov    %eax,0xc(%esp)
    36d0:	8b 45 c4             	mov    -0x3c(%ebp),%eax
    36d3:	89 44 24 10          	mov    %eax,0x10(%esp)
    36d7:	8b 45 c8             	mov    -0x38(%ebp),%eax
    36da:	89 44 24 14          	mov    %eax,0x14(%esp)
    36de:	8b 45 a4             	mov    -0x5c(%ebp),%eax
    36e1:	8b 55 a8             	mov    -0x58(%ebp),%edx
    36e4:	89 04 24             	mov    %eax,(%esp)
    36e7:	89 54 24 04          	mov    %edx,0x4(%esp)
    36eb:	e8 6e 01 00 00       	call   385e <isIn>
    36f0:	85 c0                	test   %eax,%eax
    36f2:	75 36                	jne    372a <set_icon_alpha+0x1e1>
    36f4:	8b 45 ac             	mov    -0x54(%ebp),%eax
    36f7:	89 44 24 08          	mov    %eax,0x8(%esp)
    36fb:	8b 45 b0             	mov    -0x50(%ebp),%eax
    36fe:	89 44 24 0c          	mov    %eax,0xc(%esp)
    3702:	8b 45 b4             	mov    -0x4c(%ebp),%eax
    3705:	89 44 24 10          	mov    %eax,0x10(%esp)
    3709:	8b 45 b8             	mov    -0x48(%ebp),%eax
    370c:	89 44 24 14          	mov    %eax,0x14(%esp)
    3710:	8b 45 a4             	mov    -0x5c(%ebp),%eax
    3713:	8b 55 a8             	mov    -0x58(%ebp),%edx
    3716:	89 04 24             	mov    %eax,(%esp)
    3719:	89 54 24 04          	mov    %edx,0x4(%esp)
    371d:	e8 3c 01 00 00       	call   385e <isIn>
    3722:	85 c0                	test   %eax,%eax
    3724:	0f 84 87 00 00 00    	je     37b1 <set_icon_alpha+0x268>
				if (pic->data[j * pic->width + i].rgbBlue == 0xff
    372a:	8b 45 08             	mov    0x8(%ebp),%eax
    372d:	8b 10                	mov    (%eax),%edx
    372f:	8b 45 08             	mov    0x8(%ebp),%eax
    3732:	8b 40 04             	mov    0x4(%eax),%eax
    3735:	0f af 45 f0          	imul   -0x10(%ebp),%eax
    3739:	89 c1                	mov    %eax,%ecx
    373b:	8b 45 f4             	mov    -0xc(%ebp),%eax
    373e:	01 c8                	add    %ecx,%eax
    3740:	c1 e0 02             	shl    $0x2,%eax
    3743:	01 d0                	add    %edx,%eax
    3745:	0f b6 00             	movzbl (%eax),%eax
    3748:	3c ff                	cmp    $0xff,%al
    374a:	75 65                	jne    37b1 <set_icon_alpha+0x268>
						&& pic->data[j * pic->width + i].rgbGreen == 0xff
    374c:	8b 45 08             	mov    0x8(%ebp),%eax
    374f:	8b 10                	mov    (%eax),%edx
    3751:	8b 45 08             	mov    0x8(%ebp),%eax
    3754:	8b 40 04             	mov    0x4(%eax),%eax
    3757:	0f af 45 f0          	imul   -0x10(%ebp),%eax
    375b:	89 c1                	mov    %eax,%ecx
    375d:	8b 45 f4             	mov    -0xc(%ebp),%eax
    3760:	01 c8                	add    %ecx,%eax
    3762:	c1 e0 02             	shl    $0x2,%eax
    3765:	01 d0                	add    %edx,%eax
    3767:	0f b6 40 01          	movzbl 0x1(%eax),%eax
    376b:	3c ff                	cmp    $0xff,%al
    376d:	75 42                	jne    37b1 <set_icon_alpha+0x268>
						&& pic->data[j * pic->width + i].rgbRed == 0xff) {
    376f:	8b 45 08             	mov    0x8(%ebp),%eax
    3772:	8b 10                	mov    (%eax),%edx
    3774:	8b 45 08             	mov    0x8(%ebp),%eax
    3777:	8b 40 04             	mov    0x4(%eax),%eax
    377a:	0f af 45 f0          	imul   -0x10(%ebp),%eax
    377e:	89 c1                	mov    %eax,%ecx
    3780:	8b 45 f4             	mov    -0xc(%ebp),%eax
    3783:	01 c8                	add    %ecx,%eax
    3785:	c1 e0 02             	shl    $0x2,%eax
    3788:	01 d0                	add    %edx,%eax
    378a:	0f b6 40 02          	movzbl 0x2(%eax),%eax
